(dp1
I0
(lp2
I3744
aI5616
a(lp3
I62
aI12
aI486
aI42
aI344
aa(lp4
I62
aI12
aI486
aI42
aI344
aasI1
(lp5
I3744
aI5616
a(lp6
I2
aI20
aI0
aI12
aI0
aa(lp7
I2
aI20
aI0
aI12
aI0
aasI2
(lp8
I3328
aI4992
a(lp9
I2
aI0
aI38
aI20
aI0
aa(lp10
I2
aI0
aI37
aI19
aI0
aasI4
(lp11
I3744
aI5616
a(lp12
I6
aI9
aI2
aI0
aI0
aa(lp13
I6
aI9
aI2
aI0
aI0
aasI5
(lp14
I3328
aI4992
a(lp15
I6
aI4
aI14
aI4
aI19
aa(lp16
I6
aI4
aI14
aI4
aI19
aasI6
(lp17
I3328
aI4992
a(lp18
I2
aI5
aI20
aI18
aI0
aa(lp19
I2
aI5
aI20
aI18
aI0
aasI8
(lp20
I3328
aI4992
a(lp21
I9
aI5
aI76
aI4
aI51
aa(lp22
I9
aI5
aI76
aI4
aI51
aasI10
(lp23
I3328
aI4992
a(lp24
I5
aI4
aI7
aI5
aI0
aa(lp25
I5
aI4
aI7
aI5
aI0
aasI11
(lp26
I3744
aI5616
a(lp27
I3
aI7
aI36
aI13
aI0
aa(lp28
I3
aI5
aI36
aI13
aI0
aasI12
(lp29
I3744
aI5616
a(lp30
I8
aI9
aI13
aI1
aI7
aa(lp31
I8
aI9
aI13
aI1
aI7
aasI13
(lp32
I3328
aI4992
a(lp33
I2
aI5
aI20
aI13
aI0
aa(lp34
I1
aI5
aI20
aI13
aI0
aasI14
(lp35
I3744
aI5616
a(lp36
I1
aI1
aI0
aI27
aI0
aa(lp37
I1
aI1
aI0
aI27
aI0
aasI15
(lp38
I3328
aI4992
a(lp39
I2
aI3
aI35
aI61
aI0
aa(lp40
I2
aI3
aI33
aI56
aI0
aasI16
(lp41
I3328
aI4992
a(lp42
I1
aI1
aI32
aI35
aI0
aa(lp43
I1
aI1
aI32
aI35
aI0
aasI17
(lp44
I3328
aI4992
a(lp45
I4
aI4
aI60
aI18
aI0
aa(lp46
I4
aI4
aI60
aI18
aI0
aasI18
(lp47
I3744
aI5616
a(lp48
I2
aI4
aI0
aI0
aI0
aa(lp49
I2
aI3
aI0
aI0
aI0
aasI19
(lp50
I3328
aI4992
a(lp51
I7
aI3
aI34
aI24
aI1
aa(lp52
I7
aI3
aI34
aI24
aI1
aasI20
(lp53
I3328
aI4992
a(lp54
I7
aI21
aI31
aI4
aI1
aa(lp55
I7
aI21
aI31
aI4
aI1
aasI22
(lp56
I3328
aI4992
a(lp57
I1
aI1
aI0
aI5
aI0
aa(lp58
I1
aI1
aI0
aI5
aI0
aasI23
(lp59
I3328
aI4992
a(lp60
I1
aI0
aI1
aI6
aI0
aa(lp61
I1
aI0
aI1
aI6
aI0
aasI24
(lp62
I3744
aI5616
a(lp63
I4
aI2
aI0
aI0
aI0
aa(lp64
I4
aI2
aI0
aI0
aI0
aasI25
(lp65
I3744
aI5616
a(lp66
I1
aI2
aI0
aI0
aI0
aa(lp67
I1
aI2
aI0
aI0
aI0
aasI26
(lp68
I3744
aI5616
a(lp69
I0
aI8
aI0
aI4
aI0
aa(lp70
I0
aI8
aI0
aI4
aI0
aasI27
(lp71
I3744
aI5616
a(lp72
I1
aI4
aI0
aI8
aI0
aa(lp73
I1
aI4
aI0
aI8
aI0
aasI28
(lp74
I3328
aI4992
a(lp75
I2
aI0
aI0
aI0
aI0
aa(lp76
I2
aI0
aI0
aI0
aI0
aasI29
(lp77
I3328
aI4992
a(lp78
I4
aI4
aI44
aI15
aI0
aa(lp79
I4
aI4
aI44
aI15
aI0
aasI31
(lp80
I3744
aI5616
a(lp81
I3
aI2
aI20
aI76
aI1
aa(lp82
I3
aI2
aI20
aI76
aI1
aasI32
(lp83
I3328
aI4992
a(lp84
I18
aI6
aI159
aI18
aI111
aa(lp85
I18
aI6
aI159
aI18
aI111
aasI33
(lp86
I3744
aI5616
a(lp87
I0
aI1
aI18
aI8
aI0
aa(lp88
I0
aI1
aI18
aI8
aI0
aasI35
(lp89
I3328
aI4992
a(lp90
I4
aI1
aI0
aI0
aI0
aa(lp91
I4
aI1
aI0
aI0
aI0
aasI36
(lp92
I3744
aI5616
a(lp93
I9
aI19
aI0
aI0
aI0
aa(lp94
I8
aI17
aI0
aI0
aI0
aasI37
(lp95
I3328
aI4992
a(lp96
I1
aI2
aI5
aI0
aI0
aa(lp97
I1
aI2
aI5
aI0
aI0
aasI38
(lp98
I3328
aI4992
a(lp99
I3
aI0
aI36
aI2
aI0
aa(lp100
I3
aI0
aI33
aI0
aI0
aasI39
(lp101
I3328
aI4992
a(lp102
I10
aI14
aI62
aI10
aI15
aa(lp103
I10
aI14
aI62
aI10
aI15
aasI40
(lp104
I3328
aI4992
a(lp105
I2
aI2
aI63
aI8
aI0
aa(lp106
I2
aI2
aI62
aI7
aI0
aasI41
(lp107
I3328
aI4992
a(lp108
I15
aI0
aI85
aI18
aI59
aa(lp109
I15
aI0
aI85
aI18
aI59
aasI42
(lp110
I3328
aI4992
a(lp111
I7
aI4
aI10
aI1
aI0
aa(lp112
I7
aI4
aI10
aI1
aI0
aasI43
(lp113
I3744
aI5616
a(lp114
I28
aI4
aI338
aI47
aI189
aa(lp115
I28
aI4
aI338
aI47
aI189
aasI44
(lp116
I3328
aI4992
a(lp117
I3
aI2
aI25
aI15
aI0
aa(lp118
I3
aI2
aI25
aI15
aI0
aasI45
(lp119
I3328
aI4992
a(lp120
I4
aI7
aI100
aI27
aI0
aa(lp121
I4
aI7
aI100
aI27
aI0
aasI46
(lp122
I3744
aI5616
a(lp123
I1
aI4
aI0
aI0
aI0
aa(lp124
I1
aI4
aI0
aI0
aI0
aasI47
(lp125
I3744
aI5616
a(lp126
I13
aI16
aI48
aI3
aI33
aa(lp127
I13
aI14
aI48
aI3
aI33
aasI48
(lp128
I3328
aI4992
a(lp129
I5
aI10
aI66
aI24
aI0
aa(lp130
I5
aI10
aI66
aI24
aI0
aasI49
(lp131
I3328
aI4992
a(lp132
I0
aI0
aI4
aI15
aI0
aa(lp133
I0
aI0
aI4
aI15
aI0
aasI50
(lp134
I3328
aI4992
a(lp135
I1
aI0
aI0
aI0
aI0
aa(lp136
I1
aI0
aI0
aI0
aI0
aasI51
(lp137
I3328
aI4992
a(lp138
I9
aI13
aI10
aI35
aI0
aa(lp139
I9
aI13
aI10
aI35
aI0
aasI52
(lp140
I3744
aI5616
a(lp141
I3
aI3
aI20
aI23
aI0
aa(lp142
I2
aI3
aI20
aI23
aI0
aasI53
(lp143
I3744
aI5616
a(lp144
I2
aI1
aI15
aI6
aI0
aa(lp145
I2
aI1
aI15
aI6
aI0
aasI54
(lp146
I3328
aI4992
a(lp147
I2
aI5
aI22
aI26
aI0
aa(lp148
I2
aI5
aI22
aI26
aI0
aasI55
(lp149
I3744
aI5616
a(lp150
I6
aI2
aI59
aI74
aI0
aa(lp151
I6
aI2
aI59
aI74
aI0
aasI56
(lp152
I3744
aI5616
a(lp153
I9
aI3
aI91
aI5
aI93
aa(lp154
I9
aI3
aI91
aI5
aI93
aasI57
(lp155
I3328
aI4992
a(lp156
I2
aI1
aI0
aI0
aI0
aa(lp157
I2
aI1
aI0
aI0
aI0
aasI58
(lp158
I3744
aI5616
a(lp159
I36
aI17
aI143
aI71
aI145
aa(lp160
I37
aI17
aI143
aI71
aI145
aasI59
(lp161
I3744
aI5616
a(lp162
I6
aI4
aI16
aI55
aI1
aa(lp163
I6
aI4
aI16
aI54
aI1
aasI60
(lp164
I3744
aI5616
a(lp165
I5
aI4
aI0
aI0
aI0
aa(lp166
I5
aI4
aI0
aI0
aI0
aasI61
(lp167
I3328
aI4992
a(lp168
I0
aI0
aI1
aI0
aI0
aa(lp169
I0
aI0
aI1
aI0
aI0
aasI62
(lp170
I3744
aI5616
a(lp171
I6
aI2
aI222
aI28
aI1
aa(lp172
I6
aI2
aI221
aI28
aI1
aasI63
(lp173
I3744
aI5616
a(lp174
I7
aI22
aI58
aI15
aI60
aa(lp175
I7
aI22
aI58
aI15
aI59
aasI64
(lp176
I3328
aI4992
a(lp177
I5
aI5
aI6
aI0
aI0
aa(lp178
I5
aI5
aI6
aI0
aI0
aasI65
(lp179
I3744
aI5616
a(lp180
I29
aI8
aI267
aI14
aI270
aa(lp181
I29
aI8
aI267
aI14
aI270
aasI66
(lp182
I3744
aI5616
a(lp183
I0
aI0
aI0
aI0
aI0
aa(lp184
I8
aI5
aI23
aI17
aI2
aasI67
(lp185
I3744
aI5616
a(lp186
I10
aI7
aI30
aI4
aI26
aa(lp187
I9
aI3
aI30
aI4
aI25
aasI68
(lp188
I3328
aI4992
a(lp189
I4
aI3
aI3
aI0
aI0
aa(lp190
I4
aI3
aI3
aI0
aI0
aasI69
(lp191
I3744
aI5616
a(lp192
I4
aI2
aI46
aI31
aI14
aa(lp193
I4
aI2
aI46
aI31
aI14
aasI70
(lp194
I3744
aI5616
a(lp195
I9
aI11
aI15
aI636
aI0
aa(lp196
I9
aI11
aI15
aI636
aI0
aasI72
(lp197
I3744
aI5616
a(lp198
I13
aI3
aI56
aI37
aI20
aa(lp199
I13
aI3
aI56
aI37
aI20
aasI73
(lp200
I3328
aI4992
a(lp201
I3
aI0
aI20
aI6
aI8
aa(lp202
I3
aI0
aI20
aI6
aI7
aasI74
(lp203
I3744
aI5616
a(lp204
I1
aI2
aI0
aI4
aI0
aa(lp205
I1
aI2
aI0
aI3
aI0
aasI75
(lp206
I3328
aI4992
a(lp207
I3
aI1
aI0
aI34
aI0
aa(lp208
I3
aI1
aI0
aI34
aI0
aasI76
(lp209
I3328
aI4992
a(lp210
I5
aI3
aI0
aI0
aI0
aa(lp211
I5
aI3
aI0
aI0
aI0
aasI77
(lp212
I3328
aI4992
a(lp213
I20
aI11
aI136
aI37
aI84
aa(lp214
I19
aI11
aI136
aI37
aI83
aasI78
(lp215
I3328
aI4992
a(lp216
I2
aI2
aI6
aI0
aI5
aa(lp217
I2
aI2
aI6
aI0
aI5
aasI79
(lp218
I3744
aI5616
a(lp219
I11
aI5
aI37
aI0
aI26
aa(lp220
I11
aI5
aI37
aI0
aI26
aasI80
(lp221
I3744
aI5616
a(lp222
I0
aI12
aI0
aI19
aI0
aa(lp223
I0
aI11
aI0
aI19
aI0
aasI82
(lp224
I3328
aI4992
a(lp225
I0
aI0
aI37
aI17
aI0
aa(lp226
I0
aI0
aI37
aI17
aI0
aasI83
(lp227
I3328
aI4992
a(lp228
I5
aI2
aI44
aI44
aI0
aa(lp229
I5
aI2
aI45
aI41
aI0
aasI84
(lp230
I3744
aI5616
a(lp231
I1
aI1
aI0
aI12
aI0
aa(lp232
I1
aI1
aI0
aI12
aI0
aasI85
(lp233
I3328
aI4992
a(lp234
I0
aI1
aI0
aI0
aI0
aa(lp235
I0
aI1
aI0
aI0
aI0
aasI86
(lp236
I3328
aI4992
a(lp237
I2
aI2
aI4
aI2
aI2
aa(lp238
I2
aI2
aI4
aI2
aI2
aasI87
(lp239
I3328
aI4992
a(lp240
I7
aI1
aI43
aI16
aI0
aa(lp241
I7
aI1
aI42
aI16
aI0
aasI88
(lp242
I3744
aI5616
a(lp243
I1
aI2
aI1
aI24
aI0
aa(lp244
I1
aI2
aI1
aI24
aI0
aasI90
(lp245
I3328
aI4992
a(lp246
I1
aI0
aI17
aI12
aI0
aa(lp247
I1
aI0
aI17
aI12
aI0
aasI91
(lp248
I3744
aI5616
a(lp249
I17
aI0
aI229
aI1
aI157
aa(lp250
I17
aI0
aI229
aI1
aI156
aasI92
(lp251
I3744
aI5616
a(lp252
I3
aI5
aI1
aI1
aI1
aa(lp253
I3
aI5
aI1
aI1
aI1
aasI93
(lp254
I3744
aI5616
a(lp255
I24
aI21
aI144
aI99
aI62
aa(lp256
I23
aI21
aI144
aI100
aI62
aasI94
(lp257
I3328
aI4992
a(lp258
I4
aI4
aI17
aI0
aI0
aa(lp259
I4
aI4
aI17
aI0
aI0
aasI95
(lp260
I3328
aI4992
a(lp261
I5
aI0
aI19
aI58
aI0
aa(lp262
I5
aI0
aI19
aI58
aI0
aasI96
(lp263
I3328
aI4992
a(lp264
I9
aI3
aI167
aI5
aI0
aa(lp265
I9
aI3
aI167
aI5
aI0
aasI98
(lp266
I3744
aI5616
a(lp267
I0
aI6
aI0
aI0
aI0
aa(lp268
I0
aI6
aI0
aI0
aI0
aasI99
(lp269
I3744
aI5616
a(lp270
I3
aI1
aI13
aI68
aI0
aa(lp271
I3
aI1
aI11
aI68
aI0
aasI100
(lp272
I3328
aI4992
a(lp273
I12
aI3
aI50
aI4
aI27
aa(lp274
I12
aI3
aI50
aI4
aI27
aasI101
(lp275
I3744
aI5616
a(lp276
I10
aI0
aI85
aI56
aI0
aa(lp277
I10
aI0
aI85
aI56
aI0
aasI102
(lp278
I3328
aI4992
a(lp279
I13
aI0
aI92
aI3
aI73
aa(lp280
I13
aI0
aI92
aI3
aI73
aasI103
(lp281
I3328
aI4992
a(lp282
I3
aI0
aI0
aI0
aI0
aa(lp283
I3
aI0
aI0
aI0
aI0
aasI104
(lp284
I3328
aI4992
a(lp285
I3
aI3
aI38
aI43
aI0
aa(lp286
I3
aI3
aI38
aI43
aI0
aasI105
(lp287
I3328
aI4992
a(lp288
I2
aI0
aI33
aI17
aI3
aa(lp289
I2
aI0
aI32
aI13
aI3
aasI106
(lp290
I3744
aI5616
a(lp291
I0
aI4
aI0
aI5
aI0
aa(lp292
I0
aI4
aI0
aI5
aI0
aasI107
(lp293
I3744
aI5616
a(lp294
I7
aI11
aI3
aI1
aI2
aa(lp295
I7
aI11
aI3
aI1
aI2
aasI108
(lp296
I3744
aI5616
a(lp297
I4
aI4
aI0
aI3
aI0
aa(lp298
I3
aI4
aI0
aI3
aI0
aasI109
(lp299
I3328
aI4992
a(lp300
I4
aI2
aI35
aI4
aI27
aa(lp301
I4
aI2
aI35
aI4
aI27
aasI110
(lp302
I3328
aI4992
a(lp303
I16
aI8
aI95
aI13
aI80
aa(lp304
I16
aI8
aI95
aI13
aI78
aasI111
(lp305
I3744
aI5616
a(lp306
I23
aI9
aI123
aI40
aI80
aa(lp307
I23
aI9
aI123
aI40
aI80
aasI112
(lp308
I3744
aI5616
a(lp309
I11
aI20
aI387
aI190
aI0
aa(lp310
I11
aI20
aI387
aI190
aI0
aasI113
(lp311
I3328
aI4992
a(lp312
I0
aI9
aI10
aI3
aI0
aa(lp313
I0
aI9
aI10
aI3
aI0
aasI114
(lp314
I3744
aI5616
a(lp315
I5
aI7
aI12
aI0
aI9
aa(lp316
I5
aI7
aI12
aI0
aI9
aasI115
(lp317
I3744
aI5616
a(lp318
I0
aI13
aI0
aI4
aI0
aa(lp319
I0
aI13
aI0
aI4
aI0
aasI116
(lp320
I3744
aI5616
a(lp321
I0
aI0
aI4
aI9
aI0
aa(lp322
I0
aI0
aI4
aI9
aI0
aasI117
(lp323
I3328
aI4992
a(lp324
I0
aI1
aI1
aI0
aI0
aa(lp325
I0
aI1
aI1
aI0
aI0
aasI118
(lp326
I3744
aI5616
a(lp327
I1
aI1
aI10
aI43
aI0
aa(lp328
I1
aI1
aI10
aI43
aI0
aasI119
(lp329
I3328
aI4992
a(lp330
I7
aI7
aI19
aI2
aI11
aa(lp331
I7
aI7
aI19
aI2
aI11
aasI120
(lp332
I3328
aI4992
a(lp333
I2
aI0
aI5
aI1
aI3
aa(lp334
I2
aI0
aI5
aI1
aI3
aasI121
(lp335
I3744
aI5616
a(lp336
I6
aI1
aI90
aI7
aI67
aa(lp337
I6
aI1
aI90
aI7
aI67
aasI122
(lp338
I3744
aI5616
a(lp339
I11
aI43
aI40
aI15
aI0
aa(lp340
I11
aI43
aI37
aI13
aI0
aasI123
(lp341
I3328
aI4992
a(lp342
I0
aI0
aI1
aI0
aI0
aa(lp343
I0
aI0
aI1
aI0
aI0
aasI124
(lp344
I3744
aI5616
a(lp345
I19
aI8
aI104
aI84
aI46
aa(lp346
I19
aI8
aI104
aI84
aI46
aasI125
(lp347
I3328
aI4992
a(lp348
I6
aI1
aI36
aI29
aI8
aa(lp349
I6
aI1
aI36
aI29
aI8
aasI126
(lp350
I3744
aI5616
a(lp351
I35
aI14
aI127
aI7
aI117
aa(lp352
I36
aI14
aI127
aI7
aI117
aasI127
(lp353
I3744
aI5616
a(lp354
I1
aI10
aI15
aI65
aI0
aa(lp355
I1
aI9
aI15
aI64
aI0
aasI128
(lp356
I3744
aI5616
a(lp357
I11
aI22
aI53
aI43
aI0
aa(lp358
I11
aI22
aI53
aI43
aI0
aasI129
(lp359
I3744
aI5616
a(lp360
I0
aI3
aI0
aI43
aI0
aa(lp361
I0
aI3
aI0
aI36
aI0
aasI130
(lp362
I3744
aI5616
a(lp363
I13
aI30
aI43
aI17
aI0
aa(lp364
I13
aI30
aI43
aI17
aI0
aasI131
(lp365
I3744
aI5616
a(lp366
I5
aI11
aI25
aI73
aI2
aa(lp367
I5
aI11
aI25
aI73
aI2
aasI132
(lp368
I3328
aI4992
a(lp369
I2
aI2
aI0
aI0
aI0
aa(lp370
I2
aI2
aI0
aI0
aI0
aasI133
(lp371
I3328
aI4992
a(lp372
I1
aI1
aI2
aI2
aI0
aa(lp373
I1
aI1
aI2
aI2
aI0
aasI134
(lp374
I3328
aI4992
a(lp375
I3
aI2
aI15
aI7
aI0
aa(lp376
I3
aI2
aI14
aI6
aI0
aasI135
(lp377
I3744
aI5616
a(lp378
I1
aI0
aI10
aI4
aI0
aa(lp379
I1
aI0
aI10
aI4
aI0
aasI136
(lp380
I3744
aI5616
a(lp381
I1
aI9
aI3
aI22
aI0
aa(lp382
I1
aI9
aI3
aI21
aI0
aasI137
(lp383
I3328
aI4992
a(lp384
I6
aI3
aI0
aI0
aI0
aa(lp385
I6
aI3
aI0
aI0
aI0
aasI138
(lp386
I3328
aI4992
a(lp387
I1
aI0
aI25
aI12
aI0
aa(lp388
I1
aI0
aI25
aI12
aI0
aasI139
(lp389
I3744
aI5616
a(lp390
I2
aI4
aI9
aI0
aI8
aa(lp391
I2
aI4
aI9
aI0
aI8
aasI140
(lp392
I3328
aI4992
a(lp393
I1
aI2
aI0
aI0
aI0
aa(lp394
I1
aI2
aI0
aI0
aI0
aasI141
(lp395
I3744
aI5616
a(lp396
I5
aI28
aI0
aI16
aI0
aa(lp397
I5
aI28
aI0
aI16
aI0
aasI142
(lp398
I3328
aI4992
a(lp399
I1
aI1
aI3
aI5
aI0
aa(lp400
I1
aI1
aI3
aI5
aI0
aasI143
(lp401
I3328
aI4992
a(lp402
I0
aI1
aI0
aI0
aI0
aa(lp403
I0
aI1
aI0
aI0
aI0
aasI144
(lp404
I3328
aI4992
a(lp405
I8
aI0
aI18
aI0
aI20
aa(lp406
I8
aI0
aI18
aI0
aI20
aasI145
(lp407
I3328
aI4992
a(lp408
I4
aI9
aI60
aI70
aI0
aa(lp409
I4
aI9
aI60
aI70
aI0
aasI146
(lp410
I3328
aI4992
a(lp411
I4
aI1
aI25
aI23
aI5
aa(lp412
I4
aI1
aI24
aI23
aI5
aasI147
(lp413
I3328
aI4992
a(lp414
I6
aI4
aI44
aI4
aI26
aa(lp415
I6
aI4
aI44
aI4
aI26
aasI148
(lp416
I3744
aI5616
a(lp417
I0
aI3
aI0
aI6
aI0
aa(lp418
I0
aI2
aI0
aI5
aI0
aasI149
(lp419
I3744
aI5616
a(lp420
I2
aI5
aI0
aI2
aI0
aa(lp421
I2
aI5
aI0
aI2
aI0
aasI150
(lp422
I3328
aI4992
a(lp423
I0
aI2
aI0
aI0
aI0
aa(lp424
I0
aI2
aI0
aI0
aI0
aasI152
(lp425
I3744
aI5616
a(lp426
I5
aI4
aI0
aI0
aI0
aa(lp427
I5
aI4
aI0
aI0
aI0
aasI153
(lp428
I3744
aI5616
a(lp429
I12
aI27
aI0
aI0
aI0
aa(lp430
I12
aI27
aI0
aI0
aI0
aasI154
(lp431
I3328
aI4992
a(lp432
I6
aI13
aI62
aI25
aI0
aa(lp433
I6
aI13
aI62
aI25
aI0
aasI155
(lp434
I3744
aI5616
a(lp435
I23
aI11
aI114
aI5
aI65
aa(lp436
I23
aI11
aI114
aI5
aI64
aasI156
(lp437
I3328
aI4992
a(lp438
I2
aI1
aI11
aI0
aI0
aa(lp439
I2
aI1
aI11
aI0
aI0
aasI157
(lp440
I3744
aI5616
a(lp441
I1
aI1
aI15
aI0
aI0
aa(lp442
I1
aI1
aI15
aI0
aI0
aasI158
(lp443
I3328
aI4992
a(lp444
I20
aI0
aI90
aI3
aI87
aa(lp445
I20
aI0
aI90
aI3
aI87
aasI159
(lp446
I3744
aI5616
a(lp447
I0
aI6
aI0
aI0
aI0
aa(lp448
I0
aI6
aI0
aI0
aI0
aasI160
(lp449
I3328
aI4992
a(lp450
I12
aI5
aI199
aI65
aI30
aa(lp451
I12
aI5
aI199
aI65
aI30
aasI161
(lp452
I3328
aI4992
a(lp453
I2
aI5
aI5
aI0
aI0
aa(lp454
I2
aI5
aI5
aI0
aI0
aasI162
(lp455
I3744
aI5616
a(lp456
I4
aI1
aI58
aI37
aI0
aa(lp457
I4
aI1
aI58
aI37
aI0
aasI163
(lp458
I3744
aI5616
a(lp459
I11
aI8
aI89
aI15
aI72
aa(lp460
I11
aI8
aI89
aI15
aI72
aasI164
(lp461
I3744
aI5616
a(lp462
I32
aI15
aI248
aI14
aI169
aa(lp463
I32
aI15
aI248
aI14
aI169
aasI165
(lp464
I3328
aI4992
a(lp465
I2
aI5
aI4
aI3
aI0
aa(lp466
I2
aI5
aI4
aI3
aI0
aasI166
(lp467
I3328
aI4992
a(lp468
I5
aI5
aI56
aI25
aI0
aa(lp469
I5
aI5
aI56
aI25
aI0
aasI167
(lp470
I3328
aI4992
a(lp471
I1
aI0
aI0
aI0
aI0
aa(lp472
I1
aI0
aI0
aI0
aI0
aasI168
(lp473
I3744
aI5616
a(lp474
I6
aI4
aI5
aI101
aI0
aa(lp475
I6
aI4
aI5
aI101
aI0
aasI169
(lp476
I3328
aI4992
a(lp477
I4
aI2
aI35
aI14
aI11
aa(lp478
I4
aI2
aI35
aI14
aI11
aasI170
(lp479
I3328
aI4992
a(lp480
I10
aI0
aI82
aI4
aI68
aa(lp481
I10
aI0
aI81
aI4
aI67
aasI171
(lp482
I3744
aI5616
a(lp483
I0
aI23
aI3
aI37
aI0
aa(lp484
I0
aI23
aI3
aI37
aI0
aasI172
(lp485
I3744
aI5616
a(lp486
I2
aI0
aI6
aI23
aI0
aa(lp487
I2
aI0
aI6
aI23
aI0
aasI173
(lp488
I3328
aI4992
a(lp489
I4
aI0
aI6
aI6
aI0
aa(lp490
I4
aI0
aI6
aI6
aI0
aasI174
(lp491
I3744
aI5616
a(lp492
I4
aI0
aI35
aI0
aI29
aa(lp493
I4
aI0
aI34
aI0
aI29
aasI175
(lp494
I3744
aI5616
a(lp495
I2
aI1
aI4
aI18
aI0
aa(lp496
I2
aI0
aI4
aI17
aI0
aasI176
(lp497
I3328
aI4992
a(lp498
I17
aI9
aI92
aI6
aI56
aa(lp499
I17
aI9
aI92
aI6
aI56
aasI177
(lp500
I3744
aI5616
a(lp501
I2
aI10
aI0
aI8
aI0
aa(lp502
I2
aI9
aI0
aI8
aI0
aasI178
(lp503
I3744
aI5616
a(lp504
I2
aI0
aI2
aI2
aI0
aa(lp505
I2
aI0
aI1
aI0
aI0
aasI179
(lp506
I3744
aI5616
a(lp507
I2
aI5
aI0
aI1
aI0
aa(lp508
I0
aI5
aI0
aI1
aI0
aasI180
(lp509
I3744
aI5616
a(lp510
I3
aI1
aI7
aI4
aI0
aa(lp511
I3
aI1
aI7
aI4
aI0
aasI181
(lp512
I3744
aI5616
a(lp513
I6
aI6
aI49
aI38
aI2
aa(lp514
I6
aI6
aI48
aI37
aI2
aasI182
(lp515
I3328
aI4992
a(lp516
I1
aI2
aI13
aI10
aI0
aa(lp517
I1
aI2
aI13
aI10
aI0
aasI183
(lp518
I3744
aI5616
a(lp519
I6
aI7
aI31
aI28
aI0
aa(lp520
I6
aI7
aI31
aI28
aI0
aasI185
(lp521
I3328
aI4992
a(lp522
I8
aI1
aI13
aI0
aI8
aa(lp523
I8
aI1
aI13
aI0
aI8
aasI186
(lp524
I3744
aI5616
a(lp525
I3
aI5
aI112
aI146
aI0
aa(lp526
I3
aI4
aI112
aI146
aI0
aasI187
(lp527
I3744
aI5616
a(lp528
I56
aI14
aI592
aI8
aI434
aa(lp529
I54
aI14
aI591
aI8
aI434
aasI188
(lp530
I3744
aI5616
a(lp531
I1
aI3
aI10
aI19
aI0
aa(lp532
I1
aI3
aI10
aI19
aI0
aasI189
(lp533
I3744
aI5616
a(lp534
I64
aI40
aI382
aI23
aI135
aa(lp535
I64
aI40
aI382
aI23
aI135
aasI190
(lp536
I3744
aI5616
a(lp537
I1
aI0
aI2
aI6
aI0
aa(lp538
I1
aI0
aI2
aI6
aI0
aasI191
(lp539
I3744
aI5616
a(lp540
I1
aI5
aI0
aI0
aI0
aa(lp541
I1
aI5
aI0
aI0
aI0
aasI192
(lp542
I3328
aI4992
a(lp543
I1
aI0
aI0
aI0
aI0
aa(lp544
I1
aI0
aI0
aI0
aI0
aasI193
(lp545
I3744
aI5616
a(lp546
I2
aI1
aI29
aI15
aI0
aa(lp547
I2
aI1
aI29
aI15
aI0
aasI194
(lp548
I3328
aI4992
a(lp549
I1
aI0
aI0
aI0
aI0
aa(lp550
I1
aI0
aI0
aI0
aI0
aasI195
(lp551
I3328
aI4992
a(lp552
I4
aI0
aI63
aI24
aI0
aa(lp553
I4
aI0
aI63
aI24
aI0
aasI196
(lp554
I3328
aI4992
a(lp555
I12
aI8
aI106
aI11
aI64
aa(lp556
I12
aI8
aI106
aI11
aI64
aasI197
(lp557
I3328
aI4992
a(lp558
I7
aI3
aI79
aI6
aI62
aa(lp559
I7
aI3
aI79
aI6
aI62
aasI198
(lp560
I3744
aI5616
a(lp561
I3
aI2
aI0
aI0
aI0
aa(lp562
I3
aI2
aI0
aI0
aI0
aasI199
(lp563
I3328
aI4992
a(lp564
I1
aI0
aI0
aI0
aI0
aa(lp565
I1
aI0
aI0
aI0
aI0
aasI200
(lp566
I3328
aI4992
a(lp567
I36
aI3
aI56
aI2
aI5
aa(lp568
I36
aI3
aI56
aI2
aI5
aasI201
(lp569
I3744
aI5616
a(lp570
I9
aI2
aI44
aI13
aI33
aa(lp571
I9
aI2
aI44
aI13
aI33
aasI202
(lp572
I3744
aI5616
a(lp573
I3
aI0
aI11
aI23
aI0
aa(lp574
I3
aI0
aI11
aI23
aI0
aasI203
(lp575
I3744
aI5616
a(lp576
I8
aI8
aI43
aI59
aI2
aa(lp577
I8
aI8
aI43
aI59
aI2
aasI204
(lp578
I3744
aI5616
a(lp579
I4
aI8
aI1
aI6
aI1
aa(lp580
I4
aI8
aI1
aI6
aI1
aasI205
(lp581
I3744
aI5616
a(lp582
I14
aI1
aI135
aI10
aI68
aa(lp583
I14
aI1
aI135
aI10
aI68
aasI206
(lp584
I3744
aI5616
a(lp585
I0
aI5
aI1
aI19
aI1
aa(lp586
I0
aI5
aI1
aI19
aI1
aasI207
(lp587
I3744
aI5616
a(lp588
I1
aI1
aI3
aI4
aI0
aa(lp589
I0
aI2
aI0
aI2
aI0
aasI208
(lp590
I3328
aI4992
a(lp591
I4
aI3
aI0
aI0
aI0
aa(lp592
I4
aI3
aI0
aI0
aI0
aasI209
(lp593
I3744
aI5616
a(lp594
I4
aI9
aI0
aI1
aI0
aa(lp595
I4
aI9
aI0
aI1
aI0
aasI210
(lp596
I3744
aI5616
a(lp597
I2
aI9
aI1
aI15
aI0
aa(lp598
I2
aI9
aI1
aI15
aI0
aasI211
(lp599
I3328
aI4992
a(lp600
I19
aI5
aI185
aI20
aI243
aa(lp601
I19
aI4
aI185
aI20
aI243
aasI212
(lp602
I3328
aI4992
a(lp603
I4
aI6
aI16
aI0
aI0
aa(lp604
I4
aI6
aI16
aI0
aI0
aasI213
(lp605
I3744
aI5616
a(lp606
I11
aI12
aI26
aI44
aI6
aa(lp607
I11
aI12
aI26
aI44
aI6
aasI214
(lp608
I3744
aI5616
a(lp609
I6
aI0
aI18
aI5
aI5
aa(lp610
I4
aI0
aI18
aI5
aI5
aasI216
(lp611
I3328
aI4992
a(lp612
I6
aI0
aI29
aI0
aI33
aa(lp613
I5
aI0
aI28
aI0
aI33
aasI217
(lp614
I3328
aI4992
a(lp615
I16
aI4
aI140
aI12
aI142
aa(lp616
I16
aI4
aI140
aI12
aI142
aasI218
(lp617
I3744
aI5616
a(lp618
I0
aI2
aI1
aI1
aI1
aa(lp619
I0
aI2
aI0
aI1
aI0
aasI219
(lp620
I3328
aI4992
a(lp621
I11
aI7
aI37
aI39
aI0
aa(lp622
I11
aI7
aI37
aI39
aI0
aasI220
(lp623
I3328
aI4992
a(lp624
I0
aI1
aI0
aI0
aI0
aa(lp625
I0
aI1
aI0
aI0
aI0
aasI221
(lp626
I3744
aI5616
a(lp627
I5
aI1
aI26
aI9
aI2
aa(lp628
I6
aI1
aI26
aI9
aI2
aasI222
(lp629
I3328
aI4992
a(lp630
I2
aI0
aI0
aI0
aI0
aa(lp631
I2
aI0
aI0
aI0
aI0
aasI223
(lp632
I3328
aI4992
a(lp633
I0
aI0
aI1
aI0
aI0
aa(lp634
I0
aI0
aI1
aI0
aI0
aasI224
(lp635
I3744
aI5616
a(lp636
I12
aI1
aI58
aI3
aI68
aa(lp637
I12
aI1
aI58
aI3
aI68
aasI225
(lp638
I3328
aI4992
a(lp639
I0
aI1
aI22
aI6
aI0
aa(lp640
I0
aI1
aI22
aI6
aI0
aasI226
(lp641
I3744
aI5616
a(lp642
I17
aI8
aI207
aI3
aI144
aa(lp643
I17
aI8
aI207
aI3
aI144
aasI227
(lp644
I3744
aI5616
a(lp645
I5
aI1
aI52
aI111
aI0
aa(lp646
I5
aI1
aI52
aI111
aI0
aasI228
(lp647
I3328
aI4992
a(lp648
I1
aI9
aI61
aI38
aI0
aa(lp649
I1
aI9
aI61
aI38
aI0
aasI229
(lp650
I3328
aI4992
a(lp651
I1
aI1
aI0
aI1
aI0
aa(lp652
I1
aI1
aI0
aI1
aI0
aasI230
(lp653
I3744
aI5616
a(lp654
I0
aI0
aI16
aI5
aI0
aa(lp655
I0
aI0
aI16
aI5
aI0
aasI231
(lp656
I3328
aI4992
a(lp657
I7
aI4
aI7
aI1
aI1
aa(lp658
I7
aI4
aI7
aI1
aI1
aasI232
(lp659
I3744
aI5616
a(lp660
I9
aI2
aI21
aI1
aI16
aa(lp661
I9
aI2
aI21
aI1
aI16
aasI233
(lp662
I3328
aI4992
a(lp663
I1
aI0
aI0
aI0
aI0
aa(lp664
I1
aI0
aI0
aI0
aI0
aasI235
(lp665
I3744
aI5616
a(lp666
I31
aI3
aI278
aI99
aI135
aa(lp667
I0
aI3
aI277
aI99
aI135
aasI236
(lp668
I3744
aI5616
a(lp669
I3
aI0
aI29
aI44
aI0
aa(lp670
I3
aI0
aI29
aI44
aI0
aasI237
(lp671
I3328
aI4992
a(lp672
I0
aI1
aI29
aI38
aI0
aa(lp673
I0
aI1
aI29
aI38
aI0
aasI238
(lp674
I3744
aI5616
a(lp675
I3
aI3
aI8
aI1
aI3
aa(lp676
I3
aI3
aI8
aI1
aI3
aasI239
(lp677
I3744
aI5616
a(lp678
I4
aI10
aI8
aI17
aI0
aa(lp679
I4
aI10
aI8
aI17
aI0
aasI240
(lp680
I3744
aI5616
a(lp681
I25
aI11
aI160
aI23
aI114
aa(lp682
I25
aI8
aI160
aI23
aI113
aasI241
(lp683
I3744
aI5616
a(lp684
I3
aI0
aI101
aI54
aI0
aa(lp685
I3
aI0
aI101
aI54
aI0
aasI243
(lp686
I3328
aI4992
a(lp687
I4
aI0
aI0
aI0
aI0
aa(lp688
I4
aI0
aI0
aI0
aI0
aasI244
(lp689
I3744
aI5616
a(lp690
I1
aI1
aI3
aI13
aI0
aa(lp691
I1
aI1
aI3
aI13
aI0
aasI245
(lp692
I3328
aI4992
a(lp693
I7
aI2
aI74
aI29
aI8
aa(lp694
I7
aI2
aI74
aI29
aI8
aasI246
(lp695
I3744
aI5616
a(lp696
I5
aI3
aI24
aI31
aI1
aa(lp697
I5
aI3
aI24
aI31
aI1
aasI247
(lp698
I3328
aI4992
a(lp699
I3
aI1
aI34
aI18
aI0
aa(lp700
I3
aI1
aI34
aI18
aI0
aasI248
(lp701
I3744
aI5616
a(lp702
I4
aI0
aI64
aI34
aI0
aa(lp703
I4
aI0
aI64
aI34
aI0
aasI249
(lp704
I3744
aI5616
a(lp705
I4
aI8
aI13
aI38
aI0
aa(lp706
I4
aI8
aI13
aI38
aI0
aasI250
(lp707
I3328
aI4992
a(lp708
I2
aI4
aI2
aI0
aI0
aa(lp709
I2
aI4
aI2
aI0
aI0
aasI251
(lp710
I3744
aI5616
a(lp711
I1
aI0
aI5
aI31
aI0
aa(lp712
I1
aI0
aI5
aI31
aI0
aasI252
(lp713
I3744
aI5616
a(lp714
I23
aI4
aI105
aI15
aI67
aa(lp715
I21
aI2
aI105
aI15
aI67
aasI253
(lp716
I3328
aI4992
a(lp717
I2
aI0
aI0
aI0
aI0
aa(lp718
I2
aI0
aI0
aI0
aI0
aasI254
(lp719
I3744
aI5616
a(lp720
I2
aI9
aI7
aI1
aI6
aa(lp721
I2
aI9
aI7
aI1
aI6
aasI255
(lp722
I3744
aI5616
a(lp723
I0
aI3
aI0
aI0
aI0
aa(lp724
I0
aI3
aI0
aI0
aI0
aasI256
(lp725
I3744
aI5616
a(lp726
I15
aI0
aI92
aI54
aI59
aa(lp727
I15
aI0
aI92
aI53
aI59
aasI257
(lp728
I3744
aI5616
a(lp729
I1
aI11
aI23
aI53
aI9
aa(lp730
I1
aI11
aI23
aI53
aI9
aasI258
(lp731
I3744
aI5616
a(lp732
I19
aI11
aI350
aI266
aI1
aa(lp733
I19
aI11
aI350
aI265
aI1
aasI259
(lp734
I3328
aI4992
a(lp735
I3
aI3
aI32
aI20
aI0
aa(lp736
I4
aI3
aI32
aI20
aI0
aasI260
(lp737
I3744
aI5616
a(lp738
I3
aI1
aI8
aI51
aI0
aa(lp739
I3
aI1
aI8
aI51
aI0
aasI261
(lp740
I3328
aI4992
a(lp741
I3
aI4
aI29
aI9
aI2
aa(lp742
I3
aI4
aI29
aI9
aI2
aasI262
(lp743
I3328
aI4992
a(lp744
I3
aI0
aI34
aI31
aI5
aa(lp745
I3
aI0
aI34
aI31
aI5
aasI263
(lp746
I3744
aI5616
a(lp747
I12
aI2
aI57
aI32
aI23
aa(lp748
I12
aI2
aI57
aI32
aI23
aasI264
(lp749
I3328
aI4992
a(lp750
I0
aI0
aI3
aI3
aI0
aa(lp751
I0
aI0
aI3
aI3
aI0
aasI265
(lp752
I3744
aI5616
a(lp753
I1
aI8
aI0
aI2
aI0
aa(lp754
I1
aI5
aI0
aI0
aI0
aasI266
(lp755
I3328
aI4992
a(lp756
I4
aI0
aI39
aI35
aI0
aa(lp757
I4
aI0
aI39
aI35
aI0
aasI267
(lp758
I3328
aI4992
a(lp759
I14
aI8
aI62
aI14
aI44
aa(lp760
I14
aI8
aI62
aI14
aI44
aasI269
(lp761
I3328
aI4992
a(lp762
I3
aI2
aI0
aI0
aI0
aa(lp763
I3
aI2
aI0
aI0
aI0
aasI270
(lp764
I3744
aI5616
a(lp765
I3
aI0
aI21
aI29
aI0
aa(lp766
I3
aI0
aI21
aI28
aI0
aasI271
(lp767
I3328
aI4992
a(lp768
I30
aI7
aI289
aI34
aI217
aa(lp769
I30
aI7
aI288
aI34
aI217
aasI272
(lp770
I3744
aI5616
a(lp771
I0
aI2
aI0
aI4
aI0
aa(lp772
I0
aI2
aI0
aI4
aI0
aasI273
(lp773
I3744
aI5616
a(lp774
I14
aI3
aI296
aI7
aI250
aa(lp775
I14
aI3
aI296
aI7
aI250
aasI274
(lp776
I3328
aI4992
a(lp777
I1
aI0
aI0
aI0
aI0
aa(lp778
I1
aI0
aI0
aI0
aI0
aasI275
(lp779
I3328
aI4992
a(lp780
I0
aI1
aI25
aI40
aI0
aa(lp781
I1
aI1
aI25
aI40
aI0
aasI276
(lp782
I3328
aI4992
a(lp783
I6
aI3
aI37
aI0
aI0
aa(lp784
I6
aI3
aI37
aI0
aI0
aasI277
(lp785
I3328
aI4992
a(lp786
I5
aI6
aI68
aI102
aI0
aa(lp787
I5
aI6
aI68
aI101
aI0
aasI278
(lp788
I3744
aI5616
a(lp789
I5
aI0
aI18
aI19
aI2
aa(lp790
I5
aI0
aI18
aI19
aI2
aasI279
(lp791
I3744
aI5616
a(lp792
I1
aI0
aI8
aI4
aI0
aa(lp793
I1
aI0
aI8
aI4
aI0
aasI280
(lp794
I3328
aI4992
a(lp795
I12
aI5
aI19
aI3
aI29
aa(lp796
I12
aI5
aI19
aI3
aI29
aasI281
(lp797
I3328
aI4992
a(lp798
I3
aI3
aI51
aI20
aI0
aa(lp799
I3
aI3
aI51
aI20
aI0
aasI282
(lp800
I3744
aI5616
a(lp801
I0
aI3
aI3
aI0
aI0
aa(lp802
I0
aI3
aI3
aI0
aI0
aasI283
(lp803
I3328
aI4992
a(lp804
I4
aI7
aI26
aI12
aI0
aa(lp805
I4
aI7
aI26
aI12
aI0
aasI284
(lp806
I3328
aI4992
a(lp807
I2
aI0
aI16
aI15
aI0
aa(lp808
I2
aI0
aI16
aI15
aI0
aasI285
(lp809
I3744
aI5616
a(lp810
I0
aI2
aI0
aI0
aI0
aa(lp811
I0
aI2
aI0
aI0
aI0
aasI286
(lp812
I3744
aI5616
a(lp813
I2
aI2
aI0
aI0
aI0
aa(lp814
I2
aI2
aI0
aI0
aI0
aasI287
(lp815
I3328
aI4992
a(lp816
I10
aI8
aI1
aI0
aI0
aa(lp817
I10
aI8
aI1
aI0
aI0
aasI288
(lp818
I3328
aI4992
a(lp819
I4
aI0
aI12
aI15
aI1
aa(lp820
I4
aI0
aI12
aI15
aI1
aasI289
(lp821
I3328
aI4992
a(lp822
I0
aI2
aI38
aI15
aI0
aa(lp823
I0
aI2
aI38
aI15
aI0
aasI291
(lp824
I3744
aI5616
a(lp825
I39
aI20
aI275
aI23
aI237
aa(lp826
I41
aI20
aI275
aI23
aI237
aasI292
(lp827
I3744
aI5616
a(lp828
I2
aI3
aI23
aI15
aI1
aa(lp829
I5
aI5
aI50
aI42
aI1
aasI293
(lp830
I3744
aI5616
a(lp831
I6
aI4
aI38
aI2
aI33
aa(lp832
I6
aI4
aI38
aI2
aI31
aasI294
(lp833
I3744
aI5616
a(lp834
I1
aI1
aI2
aI5
aI0
aa(lp835
I1
aI1
aI2
aI5
aI0
aasI295
(lp836
I3328
aI4992
a(lp837
I16
aI6
aI51
aI29
aI26
aa(lp838
I16
aI6
aI51
aI29
aI26
aasI296
(lp839
I3744
aI5616
a(lp840
I1
aI6
aI0
aI2
aI0
aa(lp841
I1
aI6
aI0
aI2
aI0
aasI297
(lp842
I3744
aI5616
a(lp843
I3
aI40
aI24
aI39
aI0
aa(lp844
I3
aI36
aI24
aI39
aI0
aasI298
(lp845
I3744
aI5616
a(lp846
I22
aI10
aI172
aI18
aI184
aa(lp847
I22
aI10
aI172
aI18
aI183
aasI299
(lp848
I3744
aI5616
a(lp849
I27
aI10
aI209
aI32
aI55
aa(lp850
I27
aI9
aI209
aI32
aI55
aasI300
(lp851
I3328
aI4992
a(lp852
I6
aI3
aI7
aI11
aI0
aa(lp853
I6
aI3
aI7
aI11
aI0
aasI301
(lp854
I3744
aI5616
a(lp855
I6
aI3
aI67
aI5
aI35
aa(lp856
I6
aI3
aI67
aI5
aI35
aasI302
(lp857
I3744
aI5616
a(lp858
I1
aI0
aI0
aI34
aI0
aa(lp859
I1
aI0
aI0
aI34
aI0
aasI303
(lp860
I3744
aI5616
a(lp861
I1
aI2
aI0
aI24
aI0
aa(lp862
I1
aI2
aI0
aI25
aI0
aasI304
(lp863
I3744
aI5616
a(lp864
I2
aI3
aI0
aI82
aI0
aa(lp865
I2
aI3
aI0
aI82
aI0
aasI305
(lp866
I3328
aI4992
a(lp867
I1
aI2
aI3
aI0
aI0
aa(lp868
I1
aI2
aI3
aI0
aI0
aasI306
(lp869
I3744
aI5616
a(lp870
I14
aI4
aI71
aI45
aI17
aa(lp871
I14
aI4
aI71
aI45
aI17
aasI307
(lp872
I3744
aI5616
a(lp873
I8
aI0
aI17
aI6
aI17
aa(lp874
I8
aI0
aI17
aI6
aI17
aasI308
(lp875
I3744
aI5616
a(lp876
I0
aI2
aI4
aI2
aI0
aa(lp877
I0
aI2
aI4
aI2
aI0
aasI309
(lp878
I3328
aI4992
a(lp879
I5
aI0
aI61
aI23
aI9
aa(lp880
I5
aI0
aI61
aI23
aI8
aasI310
(lp881
I3328
aI4992
a(lp882
I4
aI8
aI95
aI30
aI0
aa(lp883
I4
aI8
aI95
aI29
aI0
aasI312
(lp884
I3328
aI4992
a(lp885
I1
aI1
aI22
aI14
aI0
aa(lp886
I1
aI1
aI21
aI14
aI0
aasI313
(lp887
I3328
aI4992
a(lp888
I5
aI3
aI83
aI30
aI0
aa(lp889
I5
aI3
aI83
aI30
aI0
aasI314
(lp890
I3328
aI4992
a(lp891
I1
aI2
aI0
aI0
aI0
aa(lp892
I1
aI2
aI0
aI0
aI0
aasI315
(lp893
I3744
aI5616
a(lp894
I1
aI2
aI0
aI0
aI0
aa(lp895
I1
aI2
aI0
aI0
aI0
aasI316
(lp896
I3328
aI4992
a(lp897
I5
aI0
aI0
aI1
aI0
aa(lp898
I5
aI0
aI0
aI1
aI0
aasI317
(lp899
I3328
aI4992
a(lp900
I1
aI2
aI34
aI16
aI0
aa(lp901
I1
aI2
aI34
aI16
aI0
aasI318
(lp902
I3744
aI5616
a(lp903
I2
aI9
aI33
aI42
aI1
aa(lp904
I2
aI9
aI33
aI42
aI1
aasI319
(lp905
I3744
aI5616
a(lp906
I17
aI12
aI145
aI68
aI49
aa(lp907
I17
aI12
aI145
aI68
aI49
aasI320
(lp908
I3328
aI4992
a(lp909
I16
aI4
aI227
aI39
aI11
aa(lp910
I16
aI4
aI227
aI39
aI11
aasI321
(lp911
I3744
aI5616
a(lp912
I2
aI3
aI0
aI1
aI0
aa(lp913
I2
aI3
aI0
aI1
aI0
aasI322
(lp914
I3328
aI4992
a(lp915
I8
aI3
aI63
aI22
aI10
aa(lp916
I8
aI3
aI63
aI22
aI10
aasI323
(lp917
I3328
aI4992
a(lp918
I4
aI0
aI1
aI0
aI1
aa(lp919
I2
aI0
aI1
aI0
aI1
aasI324
(lp920
I3744
aI5616
a(lp921
I2
aI3
aI12
aI33
aI0
aa(lp922
I2
aI3
aI12
aI33
aI0
aasI325
(lp923
I3744
aI5616
a(lp924
I0
aI2
aI2
aI80
aI0
aa(lp925
I0
aI2
aI2
aI79
aI0
aasI326
(lp926
I3328
aI4992
a(lp927
I1
aI3
aI69
aI80
aI0
aa(lp928
I1
aI3
aI69
aI80
aI0
aasI327
(lp929
I3328
aI4992
a(lp930
I0
aI2
aI4
aI0
aI0
aa(lp931
I0
aI2
aI4
aI0
aI0
aasI328
(lp932
I3328
aI4992
a(lp933
I5
aI4
aI18
aI5
aI13
aa(lp934
I4
aI4
aI18
aI4
aI13
aasI329
(lp935
I3328
aI4992
a(lp936
I18
aI3
aI72
aI6
aI49
aa(lp937
I18
aI3
aI72
aI6
aI49
aasI330
(lp938
I3328
aI4992
a(lp939
I1
aI0
aI25
aI67
aI0
aa(lp940
I1
aI0
aI25
aI65
aI0
aasI332
(lp941
I3744
aI5616
a(lp942
I10
aI4
aI57
aI27
aI21
aa(lp943
I10
aI4
aI57
aI27
aI21
aasI333
(lp944
I3744
aI5616
a(lp945
I0
aI15
aI0
aI74
aI0
aa(lp946
I0
aI15
aI0
aI74
aI0
aasI334
(lp947
I3744
aI5616
a(lp948
I9
aI14
aI21
aI39
aI9
aa(lp949
I9
aI14
aI21
aI39
aI9
aasI335
(lp950
I3744
aI5616
a(lp951
I6
aI36
aI19
aI12
aI0
aa(lp952
I6
aI36
aI18
aI12
aI0
aasI336
(lp953
I3744
aI5616
a(lp954
I10
aI2
aI77
aI18
aI27
aa(lp955
I10
aI2
aI77
aI18
aI27
aasI337
(lp956
I3744
aI5616
a(lp957
I0
aI3
aI4
aI86
aI0
aa(lp958
I0
aI3
aI4
aI86
aI0
aasI338
(lp959
I3744
aI5616
a(lp960
I36
aI7
aI275
aI41
aI249
aa(lp961
I36
aI7
aI275
aI41
aI248
aasI339
(lp962
I3328
aI4992
a(lp963
I2
aI2
aI5
aI0
aI0
aa(lp964
I2
aI2
aI5
aI0
aI0
aasI340
(lp965
I3744
aI5616
a(lp966
I21
aI4
aI181
aI23
aI145
aa(lp967
I21
aI4
aI181
aI23
aI145
aasI341
(lp968
I3744
aI5616
a(lp969
I0
aI1
aI0
aI1
aI0
aa(lp970
I0
aI1
aI0
aI1
aI0
aasI342
(lp971
I3744
aI5616
a(lp972
I3
aI0
aI24
aI16
aI0
aa(lp973
I3
aI0
aI21
aI16
aI0
aasI343
(lp974
I3744
aI5616
a(lp975
I2
aI1
aI4
aI2
aI3
aa(lp976
I2
aI1
aI4
aI2
aI3
aasI345
(lp977
I3328
aI4992
a(lp978
I1
aI0
aI16
aI2
aI0
aa(lp979
I1
aI0
aI16
aI2
aI0
aasI346
(lp980
I3744
aI5616
a(lp981
I7
aI1
aI46
aI39
aI0
aa(lp982
I7
aI1
aI46
aI39
aI0
aasI347
(lp983
I3744
aI5616
a(lp984
I10
aI55
aI2
aI23
aI0
aa(lp985
I10
aI55
aI2
aI23
aI0
aasI348
(lp986
I3744
aI5616
a(lp987
I0
aI2
aI0
aI17
aI0
aa(lp988
I0
aI2
aI0
aI17
aI0
aasI349
(lp989
I3328
aI4992
a(lp990
I24
aI29
aI21
aI11
aI0
aa(lp991
I24
aI29
aI21
aI11
aI0
aasI350
(lp992
I3744
aI5616
a(lp993
I4
aI13
aI0
aI0
aI0
aa(lp994
I4
aI13
aI0
aI0
aI0
aasI351
(lp995
I3328
aI4992
a(lp996
I2
aI0
aI0
aI0
aI0
aa(lp997
I1
aI0
aI0
aI0
aI0
aasI352
(lp998
I3744
aI5616
a(lp999
I2
aI1
aI0
aI0
aI0
aa(lp1000
I2
aI1
aI0
aI0
aI0
aasI353
(lp1001
I3328
aI4992
a(lp1002
I5
aI4
aI78
aI29
aI0
aa(lp1003
I5
aI4
aI78
aI29
aI0
aasI354
(lp1004
I3328
aI4992
a(lp1005
I2
aI1
aI31
aI4
aI0
aa(lp1006
I2
aI1
aI31
aI4
aI0
aasI355
(lp1007
I3744
aI5616
a(lp1008
I0
aI4
aI0
aI1
aI0
aa(lp1009
I0
aI4
aI0
aI1
aI0
aasI356
(lp1010
I3328
aI4992
a(lp1011
I0
aI0
aI1
aI0
aI0
aa(lp1012
I0
aI0
aI1
aI0
aI0
aasI357
(lp1013
I3328
aI4992
a(lp1014
I4
aI1
aI0
aI0
aI0
aa(lp1015
I4
aI1
aI0
aI0
aI0
aasI358
(lp1016
I3744
aI5616
a(lp1017
I0
aI3
aI0
aI38
aI0
aa(lp1018
I0
aI3
aI0
aI38
aI0
aasI359
(lp1019
I3744
aI5616
a(lp1020
I10
aI4
aI54
aI12
aI46
aa(lp1021
I10
aI3
aI51
aI12
aI46
aasI360
(lp1022
I3744
aI5616
a(lp1023
I2
aI4
aI23
aI77
aI0
aa(lp1024
I2
aI4
aI23
aI77
aI0
aasI361
(lp1025
I3328
aI4992
a(lp1026
I27
aI1
aI146
aI38
aI54
aa(lp1027
I26
aI1
aI146
aI37
aI54
aasI362
(lp1028
I3328
aI4992
a(lp1029
I18
aI1
aI127
aI5
aI99
aa(lp1030
I18
aI1
aI127
aI4
aI97
aasI363
(lp1031
I3744
aI5616
a(lp1032
I1
aI7
aI4
aI53
aI1
aa(lp1033
I1
aI7
aI4
aI53
aI1
aasI364
(lp1034
I3328
aI4992
a(lp1035
I6
aI0
aI24
aI0
aI45
aa(lp1036
I6
aI0
aI24
aI0
aI45
aasI365
(lp1037
I3744
aI5616
a(lp1038
I4
aI7
aI0
aI0
aI0
aa(lp1039
I3
aI6
aI0
aI0
aI0
aasI366
(lp1040
I3744
aI5616
a(lp1041
I1
aI1
aI2
aI2
aI0
aa(lp1042
I1
aI1
aI2
aI2
aI0
aasI367
(lp1043
I3744
aI5616
a(lp1044
I15
aI4
aI99
aI4
aI55
aa(lp1045
I15
aI4
aI99
aI4
aI55
aasI368
(lp1046
I3328
aI4992
a(lp1047
I6
aI0
aI37
aI3
aI34
aa(lp1048
I5
aI0
aI36
aI3
aI34
aasI369
(lp1049
I3744
aI5616
a(lp1050
I8
aI43
aI0
aI24
aI0
aa(lp1051
I8
aI41
aI0
aI24
aI0
aasI370
(lp1052
I3744
aI5616
a(lp1053
I9
aI4
aI43
aI7
aI16
aa(lp1054
I9
aI4
aI43
aI7
aI16
aasI371
(lp1055
I3744
aI5616
a(lp1056
I15
aI2
aI62
aI5
aI49
aa(lp1057
I15
aI2
aI62
aI5
aI49
aasI372
(lp1058
I3744
aI5616
a(lp1059
I29
aI6
aI136
aI33
aI82
aa(lp1060
I29
aI6
aI136
aI33
aI82
aasI373
(lp1061
I3744
aI5616
a(lp1062
I12
aI6
aI69
aI54
aI6
aa(lp1063
I12
aI6
aI69
aI54
aI6
aasI374
(lp1064
I3328
aI4992
a(lp1065
I0
aI0
aI36
aI43
aI0
aa(lp1066
I0
aI0
aI36
aI43
aI0
aasI375
(lp1067
I3328
aI4992
a(lp1068
I4
aI0
aI0
aI0
aI0
aa(lp1069
I3
aI0
aI0
aI0
aI0
aasI376
(lp1070
I3328
aI4992
a(lp1071
I2
aI3
aI24
aI4
aI0
aa(lp1072
I2
aI3
aI24
aI4
aI0
aasI377
(lp1073
I3328
aI4992
a(lp1074
I8
aI5
aI27
aI2
aI29
aa(lp1075
I8
aI5
aI27
aI2
aI29
aasI378
(lp1076
I3328
aI4992
a(lp1077
I5
aI1
aI43
aI1
aI0
aa(lp1078
I5
aI1
aI43
aI1
aI0
aasI379
(lp1079
I3744
aI5616
a(lp1080
I4
aI7
aI23
aI45
aI5
aa(lp1081
I4
aI7
aI23
aI45
aI5
aasI381
(lp1082
I3328
aI4992
a(lp1083
I1
aI0
aI0
aI0
aI0
aa(lp1084
I1
aI0
aI0
aI0
aI0
aasI382
(lp1085
I3744
aI5616
a(lp1086
I1
aI0
aI12
aI22
aI0
aa(lp1087
I1
aI0
aI12
aI21
aI0
aasI383
(lp1088
I3744
aI5616
a(lp1089
I8
aI10
aI70
aI124
aI0
aa(lp1090
I8
aI8
aI70
aI123
aI0
aasI385
(lp1091
I3328
aI4992
a(lp1092
I2
aI2
aI0
aI1
aI0
aa(lp1093
I2
aI2
aI0
aI1
aI0
aasI386
(lp1094
I3744
aI5616
a(lp1095
I4
aI3
aI15
aI8
aI10
aa(lp1096
I4
aI1
aI15
aI8
aI10
aasI387
(lp1097
I3328
aI4992
a(lp1098
I2
aI0
aI0
aI0
aI0
aa(lp1099
I2
aI0
aI0
aI0
aI0
aasI388
(lp1100
I3744
aI5616
a(lp1101
I2
aI0
aI12
aI24
aI0
aa(lp1102
I1
aI0
aI12
aI24
aI0
aasI389
(lp1103
I3328
aI4992
a(lp1104
I0
aI1
aI42
aI14
aI0
aa(lp1105
I0
aI1
aI42
aI14
aI0
aasI390
(lp1106
I3744
aI5616
a(lp1107
I4
aI5
aI4
aI2
aI3
aa(lp1108
I4
aI5
aI4
aI2
aI3
aasI391
(lp1109
I3744
aI5616
a(lp1110
I7
aI3
aI8
aI0
aI8
aa(lp1111
I7
aI3
aI8
aI0
aI8
aasI392
(lp1112
I3328
aI4992
a(lp1113
I2
aI0
aI15
aI19
aI0
aa(lp1114
I2
aI0
aI15
aI19
aI0
aasI393
(lp1115
I3328
aI4992
a(lp1116
I7
aI6
aI33
aI2
aI21
aa(lp1117
I7
aI6
aI33
aI2
aI21
aasI394
(lp1118
I3744
aI5616
a(lp1119
I1
aI6
aI0
aI0
aI0
aa(lp1120
I1
aI2
aI0
aI0
aI0
aasI395
(lp1121
I3328
aI4992
a(lp1122
I2
aI1
aI25
aI16
aI0
aa(lp1123
I2
aI0
aI23
aI15
aI0
aasI396
(lp1124
I3744
aI5616
a(lp1125
I1
aI11
aI0
aI2
aI0
aa(lp1126
I1
aI11
aI0
aI2
aI0
aasI397
(lp1127
I3328
aI4992
a(lp1128
I2
aI1
aI2
aI0
aI0
aa(lp1129
I2
aI1
aI2
aI0
aI0
aasI398
(lp1130
I3744
aI5616
a(lp1131
I0
aI7
aI0
aI11
aI0
aa(lp1132
I1
aI4
aI0
aI11
aI0
aasI399
(lp1133
I3744
aI5616
a(lp1134
I6
aI13
aI30
aI70
aI0
aa(lp1135
I6
aI13
aI30
aI70
aI0
aasI400
(lp1136
I3328
aI4992
a(lp1137
I3
aI1
aI7
aI0
aI0
aa(lp1138
I3
aI1
aI7
aI0
aI0
aasI401
(lp1139
I3744
aI5616
a(lp1140
I8
aI8
aI33
aI32
aI16
aa(lp1141
I8
aI8
aI33
aI32
aI16
aasI402
(lp1142
I3744
aI5616
a(lp1143
I6
aI11
aI300
aI71
aI0
aa(lp1144
I6
aI11
aI300
aI71
aI0
aasI403
(lp1145
I3744
aI5616
a(lp1146
I1
aI17
aI21
aI195
aI2
aa(lp1147
I1
aI17
aI21
aI195
aI2
aasI404
(lp1148
I3328
aI4992
a(lp1149
I2
aI0
aI12
aI1
aI6
aa(lp1150
I2
aI0
aI12
aI1
aI6
aasI405
(lp1151
I3744
aI5616
a(lp1152
I1
aI2
aI4
aI10
aI0
aa(lp1153
I1
aI2
aI4
aI7
aI0
aasI407
(lp1154
I3328
aI4992
a(lp1155
I5
aI2
aI4
aI0
aI0
aa(lp1156
I5
aI2
aI4
aI0
aI0
aasI408
(lp1157
I3744
aI5616
a(lp1158
I9
aI5
aI45
aI2
aI34
aa(lp1159
I9
aI5
aI45
aI2
aI34
aasI409
(lp1160
I3744
aI5616
a(lp1161
I4
aI0
aI15
aI7
aI1
aa(lp1162
I4
aI0
aI13
aI6
aI1
aasI410
(lp1163
I3744
aI5616
a(lp1164
I1
aI3
aI0
aI0
aI0
aa(lp1165
I1
aI2
aI0
aI0
aI0
aasI411
(lp1166
I3744
aI5616
a(lp1167
I17
aI0
aI329
aI345
aI0
aa(lp1168
I17
aI0
aI329
aI345
aI0
aasI412
(lp1169
I3744
aI5616
a(lp1170
I5
aI13
aI105
aI61
aI0
aa(lp1171
I5
aI7
aI104
aI61
aI0
aasI413
(lp1172
I3744
aI5616
a(lp1173
I8
aI2
aI0
aI0
aI0
aa(lp1174
I8
aI2
aI0
aI0
aI0
aasI414
(lp1175
I3744
aI5616
a(lp1176
I3
aI7
aI10
aI13
aI0
aa(lp1177
I3
aI7
aI10
aI13
aI0
aasI415
(lp1178
I3328
aI4992
a(lp1179
I4
aI0
aI20
aI2
aI0
aa(lp1180
I4
aI0
aI20
aI2
aI0
aasI416
(lp1181
I3744
aI5616
a(lp1182
I2
aI34
aI7
aI341
aI0
aa(lp1183
I2
aI34
aI7
aI339
aI0
aasI417
(lp1184
I3328
aI4992
a(lp1185
I6
aI2
aI4
aI0
aI0
aa(lp1186
I6
aI2
aI4
aI0
aI0
aasI418
(lp1187
I3744
aI5616
a(lp1188
I11
aI6
aI139
aI150
aI0
aa(lp1189
I10
aI6
aI139
aI150
aI0
aasI419
(lp1190
I3328
aI4992
a(lp1191
I3
aI1
aI0
aI0
aI0
aa(lp1192
I3
aI1
aI0
aI0
aI0
aasI420
(lp1193
I3744
aI5616
a(lp1194
I8
aI6
aI13
aI4
aI16
aa(lp1195
I8
aI6
aI13
aI4
aI16
aasI422
(lp1196
I3328
aI4992
a(lp1197
I10
aI0
aI93
aI19
aI90
aa(lp1198
I10
aI0
aI93
aI19
aI90
aasI423
(lp1199
I3744
aI5616
a(lp1200
I0
aI4
aI0
aI4
aI0
aa(lp1201
I0
aI4
aI0
aI4
aI0
aasI424
(lp1202
I3328
aI4992
a(lp1203
I1
aI0
aI34
aI18
aI0
aa(lp1204
I1
aI0
aI34
aI18
aI0
aasI425
(lp1205
I3744
aI5616
a(lp1206
I0
aI1
aI14
aI16
aI0
aa(lp1207
I0
aI1
aI14
aI16
aI0
aasI426
(lp1208
I3744
aI5616
a(lp1209
I2
aI5
aI6
aI32
aI5
aa(lp1210
I2
aI6
aI11
aI42
aI5
aasI427
(lp1211
I3744
aI5616
a(lp1212
I1
aI3
aI4
aI28
aI0
aa(lp1213
I1
aI3
aI4
aI28
aI0
aasI428
(lp1214
I3328
aI4992
a(lp1215
I1
aI0
aI1
aI1
aI0
aa(lp1216
I1
aI0
aI1
aI1
aI0
aasI429
(lp1217
I3744
aI5616
a(lp1218
I3
aI18
aI19
aI25
aI0
aa(lp1219
I3
aI18
aI19
aI25
aI0
aasI430
(lp1220
I3328
aI4992
a(lp1221
I4
aI0
aI10
aI6
aI1
aa(lp1222
I4
aI0
aI10
aI6
aI1
aasI431
(lp1223
I3744
aI5616
a(lp1224
I0
aI2
aI5
aI8
aI0
aa(lp1225
I0
aI1
aI5
aI7
aI0
aasI432
(lp1226
I3328
aI4992
a(lp1227
I4
aI8
aI23
aI23
aI0
aa(lp1228
I4
aI8
aI23
aI23
aI0
aasI433
(lp1229
I3744
aI5616
a(lp1230
I0
aI3
aI5
aI41
aI0
aa(lp1231
I0
aI3
aI5
aI43
aI0
aasI434
(lp1232
I3744
aI5616
a(lp1233
I7
aI3
aI21
aI101
aI0
aa(lp1234
I7
aI3
aI21
aI101
aI0
aasI435
(lp1235
I3744
aI5616
a(lp1236
I0
aI4
aI1
aI19
aI0
aa(lp1237
I0
aI4
aI1
aI19
aI0
aasI436
(lp1238
I3328
aI4992
a(lp1239
I2
aI1
aI0
aI0
aI0
aa(lp1240
I2
aI1
aI0
aI0
aI0
aasI437
(lp1241
I3328
aI4992
a(lp1242
I36
aI1
aI215
aI4
aI192
aa(lp1243
I30
aI1
aI215
aI4
aI192
aasI438
(lp1244
I3744
aI5616
a(lp1245
I15
aI6
aI169
aI0
aI123
aa(lp1246
I15
aI6
aI169
aI0
aI123
aasI439
(lp1247
I3328
aI4992
a(lp1248
I2
aI3
aI21
aI16
aI0
aa(lp1249
I2
aI3
aI21
aI16
aI0
aasI440
(lp1250
I3744
aI5616
a(lp1251
I2
aI13
aI4
aI7
aI0
aa(lp1252
I2
aI13
aI4
aI7
aI0
aasI441
(lp1253
I3744
aI5616
a(lp1254
I1
aI0
aI8
aI16
aI0
aa(lp1255
I1
aI0
aI8
aI15
aI0
aasI442
(lp1256
I3744
aI5616
a(lp1257
I1
aI2
aI5
aI23
aI0
aa(lp1258
I1
aI2
aI5
aI23
aI0
aasI443
(lp1259
I3328
aI4992
a(lp1260
I4
aI1
aI12
aI35
aI0
aa(lp1261
I4
aI1
aI12
aI35
aI0
aasI444
(lp1262
I3744
aI5616
a(lp1263
I1
aI4
aI0
aI0
aI0
aa(lp1264
I1
aI4
aI0
aI0
aI0
aasI445
(lp1265
I3744
aI5616
a(lp1266
I1
aI0
aI11
aI16
aI0
aa(lp1267
I1
aI0
aI11
aI16
aI0
aasI446
(lp1268
I3328
aI4992
a(lp1269
I9
aI1
aI62
aI19
aI32
aa(lp1270
I9
aI1
aI62
aI19
aI32
aasI447
(lp1271
I3744
aI5616
a(lp1272
I0
aI4
aI0
aI2
aI0
aa(lp1273
I0
aI4
aI0
aI2
aI0
aasI448
(lp1274
I3744
aI5616
a(lp1275
I1
aI1
aI2
aI1
aI1
aa(lp1276
I2
aI1
aI2
aI1
aI1
aasI449
(lp1277
I3744
aI5616
a(lp1278
I1
aI6
aI0
aI0
aI0
aa(lp1279
I1
aI6
aI0
aI0
aI0
aasI450
(lp1280
I3328
aI4992
a(lp1281
I1
aI0
aI0
aI0
aI0
aa(lp1282
I1
aI0
aI0
aI0
aI0
aasI451
(lp1283
I3744
aI5616
a(lp1284
I2
aI3
aI44
aI29
aI0
aa(lp1285
I2
aI3
aI44
aI29
aI0
aasI452
(lp1286
I3744
aI5616
a(lp1287
I35
aI7
aI207
aI9
aI100
aa(lp1288
I36
aI7
aI207
aI9
aI100
aasI453
(lp1289
I3744
aI5616
a(lp1290
I2
aI1
aI9
aI20
aI0
aa(lp1291
I2
aI1
aI9
aI20
aI0
aasI454
(lp1292
I3744
aI5616
a(lp1293
I2
aI5
aI22
aI35
aI1
aa(lp1294
I2
aI5
aI22
aI35
aI1
aasI455
(lp1295
I3328
aI4992
a(lp1296
I3
aI0
aI49
aI17
aI2
aa(lp1297
I3
aI0
aI49
aI17
aI2
aasI456
(lp1298
I3328
aI4992
a(lp1299
I3
aI3
aI5
aI0
aI0
aa(lp1300
I3
aI3
aI5
aI0
aI0
aasI457
(lp1301
I3744
aI5616
a(lp1302
I2
aI1
aI5
aI13
aI0
aa(lp1303
I2
aI1
aI5
aI13
aI0
aasI458
(lp1304
I3744
aI5616
a(lp1305
I1
aI9
aI7
aI6
aI0
aa(lp1306
I1
aI9
aI7
aI6
aI0
aasI459
(lp1307
I3328
aI4992
a(lp1308
I15
aI7
aI58
aI3
aI30
aa(lp1309
I15
aI7
aI58
aI3
aI30
aasI460
(lp1310
I3328
aI4992
a(lp1311
I1
aI1
aI22
aI21
aI0
aa(lp1312
I1
aI1
aI22
aI20
aI0
aasI461
(lp1313
I3744
aI5616
a(lp1314
I1
aI2
aI17
aI40
aI0
aa(lp1315
I1
aI2
aI17
aI40
aI0
aasI462
(lp1316
I3744
aI5616
a(lp1317
I15
aI6
aI59
aI6
aI59
aa(lp1318
I14
aI6
aI59
aI6
aI58
aasI463
(lp1319
I3328
aI4992
a(lp1320
I6
aI0
aI57
aI7
aI7
aa(lp1321
I6
aI0
aI57
aI7
aI7
aasI464
(lp1322
I3744
aI5616
a(lp1323
I0
aI1
aI0
aI16
aI0
aa(lp1324
I0
aI1
aI0
aI16
aI0
aasI465
(lp1325
I3744
aI5616
a(lp1326
I10
aI2
aI94
aI172
aI0
aa(lp1327
I10
aI2
aI94
aI171
aI0
aasI466
(lp1328
I3328
aI4992
a(lp1329
I3
aI1
aI9
aI3
aI7
aa(lp1330
I3
aI1
aI9
aI3
aI7
aasI467
(lp1331
I3744
aI5616
a(lp1332
I1
aI4
aI0
aI2
aI0
aa(lp1333
I1
aI4
aI0
aI0
aI0
aasI468
(lp1334
I3328
aI4992
a(lp1335
I8
aI14
aI39
aI10
aI0
aa(lp1336
I8
aI14
aI39
aI10
aI0
aasI470
(lp1337
I3328
aI4992
a(lp1338
I0
aI0
aI1
aI1
aI0
aa(lp1339
I0
aI0
aI1
aI1
aI0
aasI471
(lp1340
I3328
aI4992
a(lp1341
I4
aI2
aI7
aI4
aI0
aa(lp1342
I4
aI2
aI7
aI4
aI0
aasI472
(lp1343
I3328
aI4992
a(lp1344
I6
aI4
aI45
aI15
aI0
aa(lp1345
I6
aI4
aI45
aI15
aI0
aasI473
(lp1346
I3328
aI4992
a(lp1347
I2
aI0
aI19
aI57
aI0
aa(lp1348
I2
aI0
aI19
aI60
aI0
aasI474
(lp1349
I3744
aI5616
a(lp1350
I1
aI2
aI7
aI26
aI0
aa(lp1351
I1
aI2
aI7
aI26
aI0
aasI476
(lp1352
I3328
aI4992
a(lp1353
I9
aI0
aI46
aI39
aI0
aa(lp1354
I9
aI0
aI42
aI38
aI0
aasI477
(lp1355
I3744
aI5616
a(lp1356
I9
aI5
aI50
aI16
aI14
aa(lp1357
I9
aI5
aI50
aI16
aI14
aasI478
(lp1358
I3744
aI5616
a(lp1359
I8
aI9
aI49
aI13
aI44
aa(lp1360
I8
aI9
aI49
aI12
aI44
aasI479
(lp1361
I3744
aI5616
a(lp1362
I5
aI5
aI0
aI0
aI0
aa(lp1363
I5
aI4
aI0
aI0
aI0
aasI480
(lp1364
I3328
aI4992
a(lp1365
I3
aI2
aI30
aI9
aI1
aa(lp1366
I3
aI2
aI30
aI9
aI1
aasI481
(lp1367
I3744
aI5616
a(lp1368
I3
aI2
aI4
aI45
aI0
aa(lp1369
I3
aI2
aI4
aI45
aI0
aasI482
(lp1370
I3744
aI5616
a(lp1371
I7
aI1
aI44
aI7
aI33
aa(lp1372
I7
aI1
aI44
aI6
aI33
aasI483
(lp1373
I3744
aI5616
a(lp1374
I1
aI3
aI3
aI31
aI0
aa(lp1375
I1
aI2
aI3
aI30
aI0
aasI484
(lp1376
I3744
aI5616
a(lp1377
I6
aI40
aI0
aI5
aI0
aa(lp1378
I6
aI40
aI0
aI5
aI0
aasI485
(lp1379
I3744
aI5616
a(lp1380
I10
aI6
aI45
aI35
aI0
aa(lp1381
I10
aI6
aI45
aI35
aI0
aasI486
(lp1382
I3328
aI4992
a(lp1383
I3
aI2
aI0
aI1
aI1
aa(lp1384
I3
aI2
aI0
aI1
aI1
aasI487
(lp1385
I3744
aI5616
a(lp1386
I3
aI1
aI0
aI0
aI0
aa(lp1387
I3
aI0
aI0
aI0
aI0
aasI488
(lp1388
I3744
aI5616
a(lp1389
I6
aI11
aI145
aI78
aI0
aa(lp1390
I6
aI11
aI145
aI78
aI0
aasI489
(lp1391
I3328
aI4992
a(lp1392
I2
aI0
aI2
aI16
aI0
aa(lp1393
I2
aI0
aI2
aI16
aI0
aasI491
(lp1394
I3328
aI4992
a(lp1395
I0
aI1
aI9
aI4
aI0
aa(lp1396
I0
aI0
aI9
aI1
aI0
aasI492
(lp1397
I3744
aI5616
a(lp1398
I2
aI2
aI9
aI21
aI1
aa(lp1399
I2
aI1
aI9
aI20
aI1
aasI493
(lp1400
I3744
aI5616
a(lp1401
I0
aI21
aI0
aI65
aI0
aa(lp1402
I0
aI21
aI0
aI65
aI0
aasI494
(lp1403
I3744
aI5616
a(lp1404
I24
aI44
aI72
aI19
aI53
aa(lp1405
I24
aI44
aI72
aI19
aI53
aasI495
(lp1406
I3744
aI5616
a(lp1407
I5
aI0
aI20
aI2
aI20
aa(lp1408
I2
aI0
aI20
aI2
aI20
aasI496
(lp1409
I3328
aI4992
a(lp1410
I0
aI2
aI5
aI0
aI4
aa(lp1411
I0
aI2
aI5
aI0
aI4
aasI497
(lp1412
I3328
aI4992
a(lp1413
I1
aI2
aI0
aI0
aI0
aa(lp1414
I1
aI2
aI0
aI0
aI0
aasI498
(lp1415
I3744
aI5616
a(lp1416
I0
aI1
aI1
aI19
aI0
aa(lp1417
I0
aI1
aI1
aI18
aI0
aasI500
(lp1418
I3744
aI5616
a(lp1419
I4
aI5
aI0
aI2
aI0
aa(lp1420
I2
aI6
aI0
aI1
aI0
aasI501
(lp1421
I3744
aI5616
a(lp1422
I2
aI0
aI2
aI3
aI0
aa(lp1423
I2
aI0
aI2
aI3
aI0
aasI502
(lp1424
I3328
aI4992
a(lp1425
I6
aI3
aI59
aI32
aI0
aa(lp1426
I6
aI3
aI59
aI32
aI0
aasI503
(lp1427
I3744
aI5616
a(lp1428
I0
aI5
aI6
aI31
aI0
aa(lp1429
I0
aI5
aI6
aI31
aI0
aasI504
(lp1430
I3744
aI5616
a(lp1431
I2
aI0
aI0
aI3
aI0
aa(lp1432
I2
aI0
aI0
aI3
aI0
aasI505
(lp1433
I3744
aI5616
a(lp1434
I1
aI9
aI0
aI42
aI0
aa(lp1435
I1
aI8
aI0
aI41
aI0
aasI506
(lp1436
I3328
aI4992
a(lp1437
I0
aI0
aI9
aI21
aI0
aa(lp1438
I0
aI0
aI9
aI21
aI0
aasI508
(lp1439
I3328
aI4992
a(lp1440
I0
aI0
aI4
aI1
aI0
aa(lp1441
I0
aI0
aI4
aI1
aI0
aasI509
(lp1442
I3744
aI5616
a(lp1443
I23
aI11
aI87
aI63
aI44
aa(lp1444
I23
aI10
aI86
aI63
aI43
aasI510
(lp1445
I3744
aI5616
a(lp1446
I2
aI1
aI0
aI0
aI0
aa(lp1447
I5
aI1
aI0
aI0
aI0
aasI511
(lp1448
I3744
aI5616
a(lp1449
I3
aI4
aI16
aI27
aI0
aa(lp1450
I3
aI4
aI16
aI27
aI0
aasI512
(lp1451
I3744
aI5616
a(lp1452
I1
aI4
aI0
aI0
aI0
aa(lp1453
I1
aI4
aI0
aI0
aI0
aasI513
(lp1454
I3744
aI5616
a(lp1455
I7
aI0
aI8
aI2
aI7
aa(lp1456
I7
aI0
aI8
aI2
aI7
aasI514
(lp1457
I3744
aI5616
a(lp1458
I6
aI3
aI260
aI109
aI0
aa(lp1459
I6
aI3
aI260
aI109
aI0
aasI515
(lp1460
I3744
aI5616
a(lp1461
I0
aI8
aI2
aI1
aI0
aa(lp1462
I0
aI8
aI2
aI1
aI0
aasI516
(lp1463
I3744
aI5616
a(lp1464
I17
aI6
aI93
aI14
aI61
aa(lp1465
I13
aI3
aI92
aI14
aI61
aasI517
(lp1466
I3328
aI4992
a(lp1467
I2
aI1
aI4
aI0
aI0
aa(lp1468
I2
aI1
aI4
aI0
aI0
aasI518
(lp1469
I3328
aI4992
a(lp1470
I4
aI7
aI59
aI31
aI0
aa(lp1471
I4
aI7
aI59
aI30
aI0
aasI519
(lp1472
I3328
aI4992
a(lp1473
I6
aI3
aI44
aI17
aI13
aa(lp1474
I6
aI3
aI44
aI17
aI13
aasI520
(lp1475
I3328
aI4992
a(lp1476
I6
aI2
aI21
aI0
aI0
aa(lp1477
I6
aI2
aI21
aI0
aI0
aasI521
(lp1478
I3744
aI5616
a(lp1479
I1
aI0
aI7
aI5
aI0
aa(lp1480
I1
aI0
aI7
aI5
aI0
aasI522
(lp1481
I3744
aI5616
a(lp1482
I5
aI3
aI67
aI43
aI5
aa(lp1483
I5
aI3
aI67
aI43
aI5
aasI523
(lp1484
I3744
aI5616
a(lp1485
I16
aI4
aI64
aI13
aI16
aa(lp1486
I17
aI4
aI64
aI13
aI16
aasI524
(lp1487
I3744
aI5616
a(lp1488
I5
aI4
aI1
aI1
aI0
aa(lp1489
I4
aI2
aI1
aI1
aI0
aasI525
(lp1490
I3744
aI5616
a(lp1491
I3
aI0
aI9
aI35
aI0
aa(lp1492
I3
aI0
aI9
aI35
aI0
aasI526
(lp1493
I3744
aI5616
a(lp1494
I4
aI10
aI20
aI19
aI13
aa(lp1495
I5
aI10
aI20
aI19
aI13
aasI527
(lp1496
I3328
aI4992
a(lp1497
I2
aI0
aI29
aI6
aI1
aa(lp1498
I2
aI0
aI29
aI6
aI1
aasI528
(lp1499
I3328
aI4992
a(lp1500
I8
aI0
aI30
aI4
aI24
aa(lp1501
I8
aI0
aI30
aI4
aI24
aasI529
(lp1502
I3328
aI4992
a(lp1503
I5
aI3
aI16
aI31
aI0
aa(lp1504
I5
aI2
aI15
aI12
aI0
aasI532
(lp1505
I3328
aI4992
a(lp1506
I2
aI0
aI0
aI0
aI0
aa(lp1507
I2
aI0
aI0
aI0
aI0
aasI533
(lp1508
I3328
aI4992
a(lp1509
I2
aI2
aI0
aI2
aI0
aa(lp1510
I2
aI2
aI0
aI2
aI0
aasI534
(lp1511
I3328
aI4992
a(lp1512
I0
aI1
aI0
aI0
aI0
aa(lp1513
I0
aI1
aI0
aI0
aI0
aasI535
(lp1514
I3328
aI4992
a(lp1515
I7
aI0
aI81
aI36
aI7
aa(lp1516
I7
aI0
aI81
aI36
aI7
aasI536
(lp1517
I3328
aI4992
a(lp1518
I15
aI1
aI52
aI4
aI44
aa(lp1519
I15
aI1
aI52
aI4
aI44
aasI537
(lp1520
I3744
aI5616
a(lp1521
I1
aI4
aI2
aI8
aI0
aa(lp1522
I1
aI4
aI2
aI8
aI0
aasI538
(lp1523
I3744
aI5616
a(lp1524
I10
aI3
aI162
aI9
aI115
aa(lp1525
I12
aI2
aI162
aI9
aI115
aasI539
(lp1526
I3744
aI5616
a(lp1527
I2
aI5
aI0
aI0
aI0
aa(lp1528
I1
aI5
aI0
aI0
aI0
aasI540
(lp1529
I3744
aI5616
a(lp1530
I22
aI21
aI40
aI11
aI1
aa(lp1531
I22
aI21
aI40
aI11
aI1
aasI541
(lp1532
I3744
aI5616
a(lp1533
I4
aI1
aI12
aI2
aI0
aa(lp1534
I4
aI1
aI12
aI2
aI0
aasI542
(lp1535
I3328
aI4992
a(lp1536
I3
aI2
aI0
aI0
aI0
aa(lp1537
I3
aI2
aI0
aI0
aI0
aasI543
(lp1538
I3744
aI5616
a(lp1539
I4
aI2
aI0
aI6
aI0
aa(lp1540
I3
aI2
aI0
aI6
aI0
aasI544
(lp1541
I3328
aI4992
a(lp1542
I4
aI5
aI8
aI2
aI0
aa(lp1543
I4
aI6
aI8
aI2
aI0
aasI545
(lp1544
I3744
aI5616
a(lp1545
I3
aI14
aI36
aI21
aI0
aa(lp1546
I3
aI14
aI36
aI21
aI0
aasI546
(lp1547
I3744
aI5616
a(lp1548
I3
aI1
aI16
aI47
aI0
aa(lp1549
I3
aI1
aI16
aI47
aI0
aasI547
(lp1550
I3328
aI4992
a(lp1551
I2
aI2
aI18
aI34
aI0
aa(lp1552
I2
aI2
aI18
aI34
aI0
aasI548
(lp1553
I3328
aI4992
a(lp1554
I3
aI0
aI5
aI4
aI0
aa(lp1555
I3
aI0
aI5
aI4
aI0
aasI549
(lp1556
I3328
aI4992
a(lp1557
I1
aI4
aI31
aI0
aI0
aa(lp1558
I1
aI4
aI31
aI0
aI0
aasI550
(lp1559
I3744
aI5616
a(lp1560
I2
aI0
aI11
aI14
aI0
aa(lp1561
I2
aI0
aI11
aI14
aI0
aasI551
(lp1562
I3744
aI5616
a(lp1563
I1
aI0
aI13
aI13
aI0
aa(lp1564
I1
aI0
aI13
aI13
aI0
aasI552
(lp1565
I3328
aI4992
a(lp1566
I2
aI3
aI52
aI45
aI0
aa(lp1567
I2
aI3
aI52
aI46
aI0
aasI553
(lp1568
I3744
aI5616
a(lp1569
I6
aI3
aI3
aI1
aI0
aa(lp1570
I5
aI3
aI3
aI1
aI0
aasI554
(lp1571
I3744
aI5616
a(lp1572
I2
aI9
aI9
aI1
aI1
aa(lp1573
I1
aI8
aI9
aI1
aI1
aasI555
(lp1574
I3744
aI5616
a(lp1575
I5
aI3
aI20
aI28
aI0
aa(lp1576
I3
aI3
aI20
aI28
aI0
aasI556
(lp1577
I3744
aI5616
a(lp1578
I13
aI17
aI133
aI32
aI102
aa(lp1579
I13
aI17
aI133
aI32
aI102
aasI557
(lp1580
I3744
aI5616
a(lp1581
I0
aI3
aI0
aI3
aI0
aa(lp1582
I0
aI3
aI0
aI3
aI0
aasI558
(lp1583
I3328
aI4992
a(lp1584
I14
aI3
aI87
aI21
aI39
aa(lp1585
I14
aI3
aI87
aI21
aI39
aasI559
(lp1586
I3744
aI5616
a(lp1587
I2
aI2
aI29
aI41
aI0
aa(lp1588
I2
aI2
aI29
aI41
aI0
aasI560
(lp1589
I3744
aI5616
a(lp1590
I1
aI2
aI0
aI38
aI0
aa(lp1591
I1
aI2
aI0
aI37
aI0
aasI561
(lp1592
I3328
aI4992
a(lp1593
I3
aI0
aI33
aI42
aI0
aa(lp1594
I3
aI0
aI33
aI42
aI0
aasI562
(lp1595
I3328
aI4992
a(lp1596
I3
aI4
aI31
aI68
aI0
aa(lp1597
I3
aI4
aI31
aI68
aI0
aasI563
(lp1598
I3328
aI4992
a(lp1599
I6
aI5
aI68
aI6
aI88
aa(lp1600
I6
aI5
aI68
aI6
aI88
aasI564
(lp1601
I3328
aI4992
a(lp1602
I1
aI0
aI0
aI0
aI0
aa(lp1603
I1
aI0
aI0
aI0
aI0
aasI565
(lp1604
I3328
aI4992
a(lp1605
I0
aI0
aI6
aI8
aI0
aa(lp1606
I0
aI0
aI6
aI8
aI0
aasI566
(lp1607
I3744
aI5616
a(lp1608
I2
aI2
aI0
aI0
aI0
aa(lp1609
I2
aI2
aI0
aI0
aI0
aasI567
(lp1610
I3328
aI4992
a(lp1611
I5
aI3
aI66
aI30
aI1
aa(lp1612
I5
aI3
aI66
aI30
aI1
aasI568
(lp1613
I3744
aI5616
a(lp1614
I4
aI0
aI9
aI19
aI2
aa(lp1615
I4
aI0
aI9
aI17
aI2
aasI569
(lp1616
I3744
aI5616
a(lp1617
I19
aI9
aI113
aI24
aI105
aa(lp1618
I19
aI9
aI113
aI24
aI105
aasI570
(lp1619
I3744
aI5616
a(lp1620
I2
aI3
aI0
aI0
aI0
aa(lp1621
I2
aI3
aI0
aI0
aI0
aasI571
(lp1622
I3328
aI4992
a(lp1623
I3
aI0
aI30
aI13
aI0
aa(lp1624
I0
aI0
aI30
aI13
aI0
aasI572
(lp1625
I3328
aI4992
a(lp1626
I0
aI0
aI11
aI9
aI0
aa(lp1627
I0
aI0
aI11
aI9
aI0
aasI573
(lp1628
I3744
aI5616
a(lp1629
I2
aI5
aI0
aI0
aI0
aa(lp1630
I2
aI5
aI0
aI0
aI0
aasI574
(lp1631
I3744
aI5616
a(lp1632
I4
aI4
aI22
aI9
aI7
aa(lp1633
I4
aI2
aI21
aI9
aI7
aasI575
(lp1634
I3328
aI4992
a(lp1635
I2
aI1
aI19
aI3
aI0
aa(lp1636
I2
aI1
aI19
aI3
aI0
aasI576
(lp1637
I3328
aI4992
a(lp1638
I3
aI12
aI24
aI24
aI0
aa(lp1639
I3
aI12
aI24
aI24
aI0
aasI577
(lp1640
I3328
aI4992
a(lp1641
I3
aI1
aI117
aI97
aI0
aa(lp1642
I3
aI1
aI116
aI97
aI0
aasI578
(lp1643
I3744
aI5616
a(lp1644
I6
aI3
aI26
aI0
aI16
aa(lp1645
I6
aI3
aI25
aI0
aI15
aasI579
(lp1646
I3328
aI4992
a(lp1647
I0
aI0
aI24
aI33
aI0
aa(lp1648
I0
aI0
aI24
aI33
aI0
aasI580
(lp1649
I3328
aI4992
a(lp1650
I3
aI5
aI0
aI0
aI0
aa(lp1651
I3
aI5
aI0
aI0
aI0
aasI581
(lp1652
I3328
aI4992
a(lp1653
I21
aI10
aI130
aI15
aI16
aa(lp1654
I21
aI10
aI130
aI15
aI16
aasI582
(lp1655
I3744
aI5616
a(lp1656
I1
aI4
aI0
aI0
aI0
aa(lp1657
I1
aI4
aI0
aI0
aI0
aasI583
(lp1658
I3328
aI4992
a(lp1659
I2
aI2
aI3
aI1
aI0
aa(lp1660
I2
aI2
aI3
aI1
aI0
aasI584
(lp1661
I3744
aI5616
a(lp1662
I7
aI0
aI4
aI0
aI3
aa(lp1663
I7
aI0
aI4
aI0
aI2
aasI585
(lp1664
I3744
aI5616
a(lp1665
I2
aI4
aI5
aI20
aI0
aa(lp1666
I2
aI1
aI4
aI16
aI0
aasI586
(lp1667
I3744
aI5616
a(lp1668
I3
aI0
aI1
aI5
aI1
aa(lp1669
I3
aI0
aI1
aI5
aI1
aasI587
(lp1670
I3744
aI5616
a(lp1671
I31
aI14
aI200
aI77
aI274
aa(lp1672
I31
aI13
aI200
aI75
aI268
aasI588
(lp1673
I3328
aI4992
a(lp1674
I5
aI31
aI13
aI11
aI0
aa(lp1675
I5
aI31
aI13
aI11
aI0
aasI589
(lp1676
I3328
aI4992
a(lp1677
I1
aI1
aI21
aI30
aI0
aa(lp1678
I1
aI1
aI21
aI30
aI0
aasI590
(lp1679
I3744
aI5616
a(lp1680
I47
aI16
aI322
aI41
aI300
aa(lp1681
I47
aI16
aI322
aI41
aI300
aasI591
(lp1682
I3744
aI5616
a(lp1683
I22
aI14
aI134
aI116
aI43
aa(lp1684
I22
aI14
aI134
aI116
aI43
aasI592
(lp1685
I3328
aI4992
a(lp1686
I1
aI1
aI0
aI0
aI0
aa(lp1687
I1
aI1
aI0
aI0
aI0
aasI593
(lp1688
I3328
aI4992
a(lp1689
I1
aI2
aI32
aI5
aI0
aa(lp1690
I1
aI2
aI32
aI58
aI0
aasI594
(lp1691
I3328
aI4992
a(lp1692
I0
aI1
aI1
aI0
aI0
aa(lp1693
I0
aI1
aI1
aI0
aI0
aasI595
(lp1694
I3328
aI4992
a(lp1695
I2
aI0
aI30
aI15
aI0
aa(lp1696
I2
aI0
aI28
aI14
aI0
aasI596
(lp1697
I3744
aI5616
a(lp1698
I5
aI4
aI30
aI47
aI0
aa(lp1699
I5
aI4
aI30
aI47
aI0
aasI597
(lp1700
I3328
aI4992
a(lp1701
I0
aI0
aI1
aI0
aI0
aa(lp1702
I0
aI0
aI1
aI0
aI0
aasI598
(lp1703
I3328
aI4992
a(lp1704
I4
aI5
aI32
aI15
aI0
aa(lp1705
I2
aI1
aI32
aI15
aI0
aasI599
(lp1706
I3744
aI5616
a(lp1707
I3
aI8
aI1
aI5
aI0
aa(lp1708
I3
aI8
aI1
aI5
aI0
aasI600
(lp1709
I3744
aI5616
a(lp1710
I0
aI1
aI19
aI27
aI0
aa(lp1711
I0
aI1
aI19
aI27
aI0
aasI601
(lp1712
I3744
aI5616
a(lp1713
I9
aI4
aI38
aI92
aI0
aa(lp1714
I9
aI4
aI38
aI92
aI0
aasI602
(lp1715
I3744
aI5616
a(lp1716
I3
aI17
aI0
aI0
aI0
aa(lp1717
I3
aI17
aI0
aI0
aI0
aasI603
(lp1718
I3328
aI4992
a(lp1719
I2
aI3
aI1
aI0
aI0
aa(lp1720
I2
aI3
aI1
aI0
aI0
aasI604
(lp1721
I3744
aI5616
a(lp1722
I12
aI5
aI105
aI204
aI2
aa(lp1723
I12
aI4
aI105
aI203
aI2
aasI606
(lp1724
I3744
aI5616
a(lp1725
I16
aI5
aI288
aI11
aI211
aa(lp1726
I15
aI5
aI288
aI11
aI211
aasI608
(lp1727
I3744
aI5616
a(lp1728
I2
aI0
aI12
aI24
aI0
aa(lp1729
I2
aI0
aI12
aI24
aI0
aasI609
(lp1730
I3744
aI5616
a(lp1731
I1
aI5
aI0
aI0
aI0
aa(lp1732
I1
aI5
aI0
aI0
aI0
aasI610
(lp1733
I3328
aI4992
a(lp1734
I5
aI5
aI17
aI12
aI0
aa(lp1735
I5
aI5
aI17
aI11
aI0
aasI611
(lp1736
I3744
aI5616
a(lp1737
I2
aI1
aI32
aI13
aI0
aa(lp1738
I2
aI1
aI32
aI13
aI0
aasI612
(lp1739
I3328
aI4992
a(lp1740
I3
aI0
aI1
aI0
aI0
aa(lp1741
I3
aI0
aI1
aI0
aI0
aasI613
(lp1742
I3328
aI4992
a(lp1743
I4
aI6
aI15
aI2
aI1
aa(lp1744
I4
aI6
aI15
aI2
aI1
aasI615
(lp1745
I3328
aI4992
a(lp1746
I2
aI1
aI35
aI22
aI0
aa(lp1747
I2
aI1
aI35
aI22
aI0
aasI616
(lp1748
I3328
aI4992
a(lp1749
I8
aI18
aI79
aI25
aI0
aa(lp1750
I8
aI18
aI79
aI25
aI0
aasI617
(lp1751
I3744
aI5616
a(lp1752
I14
aI12
aI88
aI47
aI38
aa(lp1753
I14
aI12
aI88
aI47
aI38
aasI618
(lp1754
I3744
aI5616
a(lp1755
I5
aI23
aI98
aI25
aI0
aa(lp1756
I5
aI23
aI98
aI25
aI0
aasI619
(lp1757
I3328
aI4992
a(lp1758
I6
aI2
aI27
aI6
aI12
aa(lp1759
I6
aI2
aI27
aI5
aI12
aasI620
(lp1760
I3328
aI4992
a(lp1761
I5
aI6
aI20
aI1
aI21
aa(lp1762
I5
aI6
aI20
aI1
aI21
aasI622
(lp1763
I3328
aI4992
a(lp1764
I6
aI2
aI32
aI1
aI38
aa(lp1765
I6
aI2
aI32
aI1
aI38
aasI623
(lp1766
I3328
aI4992
a(lp1767
I6
aI0
aI0
aI0
aI0
aa(lp1768
I6
aI0
aI0
aI0
aI0
aasI624
(lp1769
I3744
aI5616
a(lp1770
I7
aI6
aI38
aI1
aI20
aa(lp1771
I7
aI6
aI38
aI1
aI20
aasI625
(lp1772
I3328
aI4992
a(lp1773
I28
aI5
aI149
aI11
aI129
aa(lp1774
I28
aI5
aI149
aI11
aI129
aasI626
(lp1775
I3328
aI4992
a(lp1776
I1
aI0
aI0
aI0
aI0
aa(lp1777
I1
aI0
aI0
aI0
aI0
aasI627
(lp1778
I3328
aI4992
a(lp1779
I1
aI1
aI0
aI0
aI0
aa(lp1780
I1
aI1
aI0
aI0
aI0
aasI628
(lp1781
I3328
aI4992
a(lp1782
I11
aI4
aI18
aI1
aI0
aa(lp1783
I11
aI4
aI18
aI1
aI0
aasI629
(lp1784
I3744
aI5616
a(lp1785
I13
aI12
aI75
aI1
aI57
aa(lp1786
I10
aI9
aI75
aI1
aI57
aasI630
(lp1787
I3328
aI4992
a(lp1788
I2
aI0
aI0
aI0
aI0
aa(lp1789
I2
aI0
aI0
aI0
aI0
aasI631
(lp1790
I3328
aI4992
a(lp1791
I2
aI2
aI0
aI0
aI0
aa(lp1792
I2
aI2
aI0
aI0
aI0
aasI632
(lp1793
I3744
aI5616
a(lp1794
I5
aI3
aI1
aI6
aI0
aa(lp1795
I4
aI3
aI1
aI6
aI0
aasI633
(lp1796
I3328
aI4992
a(lp1797
I5
aI1
aI39
aI15
aI25
aa(lp1798
I5
aI1
aI39
aI15
aI23
aasI634
(lp1799
I3328
aI4992
a(lp1800
I1
aI0
aI0
aI0
aI0
aa(lp1801
I1
aI0
aI0
aI0
aI0
aasI635
(lp1802
I3328
aI4992
a(lp1803
I3
aI1
aI20
aI7
aI0
aa(lp1804
I3
aI1
aI20
aI7
aI0
aasI636
(lp1805
I3328
aI4992
a(lp1806
I2
aI2
aI34
aI2
aI0
aa(lp1807
I2
aI2
aI34
aI2
aI0
aasI637
(lp1808
I3744
aI5616
a(lp1809
I6
aI18
aI85
aI17
aI40
aa(lp1810
I6
aI18
aI85
aI17
aI40
aasI639
(lp1811
I3744
aI5616
a(lp1812
I4
aI12
aI31
aI81
aI2
aa(lp1813
I4
aI12
aI31
aI80
aI2
aasI640
(lp1814
I3328
aI4992
a(lp1815
I8
aI3
aI33
aI8
aI0
aa(lp1816
I8
aI3
aI33
aI8
aI0
aasI641
(lp1817
I3328
aI4992
a(lp1818
I1
aI2
aI70
aI102
aI0
aa(lp1819
I1
aI2
aI70
aI102
aI0
aasI642
(lp1820
I3744
aI5616
a(lp1821
I1
aI9
aI0
aI0
aI0
aa(lp1822
I1
aI9
aI0
aI0
aI0
aasI643
(lp1823
I3744
aI5616
a(lp1824
I1
aI6
aI0
aI29
aI0
aa(lp1825
I1
aI5
aI0
aI21
aI0
aasI645
(lp1826
I3744
aI5616
a(lp1827
I10
aI7
aI73
aI51
aI67
aa(lp1828
I10
aI7
aI73
aI50
aI66
aasI646
(lp1829
I3328
aI4992
a(lp1830
I1
aI1
aI11
aI3
aI0
aa(lp1831
I1
aI1
aI11
aI3
aI0
aasI647
(lp1832
I3328
aI4992
a(lp1833
I1
aI2
aI0
aI1
aI0
aa(lp1834
I1
aI2
aI0
aI1
aI0
aasI648
(lp1835
I3328
aI4992
a(lp1836
I5
aI0
aI56
aI0
aI41
aa(lp1837
I5
aI0
aI56
aI0
aI41
aasI649
(lp1838
I3744
aI5616
a(lp1839
I2
aI0
aI19
aI49
aI0
aa(lp1840
I2
aI0
aI19
aI49
aI0
aasI650
(lp1841
I3744
aI5616
a(lp1842
I2
aI25
aI0
aI13
aI0
aa(lp1843
I2
aI25
aI0
aI13
aI0
aasI651
(lp1844
I3744
aI5616
a(lp1845
I1
aI7
aI11
aI26
aI0
aa(lp1846
I1
aI7
aI11
aI26
aI0
aasI652
(lp1847
I3744
aI5616
a(lp1848
I0
aI3
aI0
aI0
aI0
aa(lp1849
I0
aI3
aI0
aI0
aI0
aasI653
(lp1850
I3328
aI4992
a(lp1851
I2
aI3
aI0
aI18
aI0
aa(lp1852
I2
aI3
aI0
aI18
aI0
aasI654
(lp1853
I3744
aI5616
a(lp1854
I1
aI3
aI0
aI8
aI0
aa(lp1855
I1
aI3
aI0
aI8
aI0
aasI655
(lp1856
I3328
aI4992
a(lp1857
I5
aI3
aI22
aI1
aI17
aa(lp1858
I5
aI3
aI21
aI1
aI17
aasI656
(lp1859
I3744
aI5616
a(lp1860
I4
aI6
aI14
aI7
aI9
aa(lp1861
I4
aI6
aI14
aI7
aI9
aasI657
(lp1862
I3328
aI4992
a(lp1863
I0
aI1
aI0
aI0
aI0
aa(lp1864
I0
aI1
aI0
aI0
aI0
aasI658
(lp1865
I3328
aI4992
a(lp1866
I5
aI8
aI0
aI0
aI0
aa(lp1867
I3
aI8
aI0
aI0
aI0
aasI659
(lp1868
I3328
aI4992
a(lp1869
I1
aI1
aI21
aI25
aI0
aa(lp1870
I1
aI1
aI21
aI25
aI0
aasI660
(lp1871
I3328
aI4992
a(lp1872
I1
aI0
aI1
aI4
aI0
aa(lp1873
I1
aI0
aI1
aI4
aI0
aasI661
(lp1874
I3328
aI4992
a(lp1875
I2
aI3
aI17
aI49
aI0
aa(lp1876
I2
aI3
aI17
aI49
aI0
aasI662
(lp1877
I3744
aI5616
a(lp1878
I10
aI6
aI245
aI20
aI0
aa(lp1879
I8
aI6
aI245
aI20
aI0
aasI663
(lp1880
I3328
aI4992
a(lp1881
I1
aI4
aI9
aI11
aI0
aa(lp1882
I1
aI4
aI9
aI11
aI0
aasI664
(lp1883
I3744
aI5616
a(lp1884
I18
aI15
aI129
aI67
aI71
aa(lp1885
I18
aI15
aI129
aI67
aI71
aasI665
(lp1886
I3744
aI5616
a(lp1887
I0
aI9
aI0
aI2
aI0
aa(lp1888
I0
aI9
aI0
aI2
aI0
aasI666
(lp1889
I3744
aI5616
a(lp1890
I0
aI4
aI4
aI14
aI0
aa(lp1891
I0
aI4
aI4
aI14
aI0
aasI667
(lp1892
I3328
aI4992
a(lp1893
I4
aI1
aI1
aI0
aI1
aa(lp1894
I4
aI1
aI1
aI0
aI1
aasI668
(lp1895
I3744
aI5616
a(lp1896
I0
aI3
aI4
aI32
aI0
aa(lp1897
I0
aI3
aI4
aI31
aI0
aasI669
(lp1898
I3328
aI4992
a(lp1899
I5
aI4
aI16
aI0
aI0
aa(lp1900
I5
aI4
aI16
aI0
aI0
aasI670
(lp1901
I3328
aI4992
a(lp1902
I0
aI4
aI21
aI19
aI0
aa(lp1903
I0
aI4
aI21
aI19
aI0
aasI671
(lp1904
I3744
aI5616
a(lp1905
I1
aI1
aI11
aI58
aI0
aa(lp1906
I1
aI1
aI11
aI57
aI0
aasI672
(lp1907
I3744
aI5616
a(lp1908
I5
aI25
aI0
aI10
aI0
aa(lp1909
I5
aI25
aI0
aI10
aI0
aasI673
(lp1910
I3328
aI4992
a(lp1911
I1
aI0
aI0
aI16
aI0
aa(lp1912
I1
aI0
aI0
aI16
aI0
aasI674
(lp1913
I3744
aI5616
a(lp1914
I20
aI3
aI112
aI23
aI118
aa(lp1915
I20
aI3
aI112
aI23
aI118
aasI675
(lp1916
I3328
aI4992
a(lp1917
I4
aI1
aI5
aI0
aI5
aa(lp1918
I4
aI1
aI5
aI0
aI3
aasI676
(lp1919
I3744
aI5616
a(lp1920
I16
aI10
aI43
aI6
aI22
aa(lp1921
I16
aI10
aI43
aI6
aI21
aasI677
(lp1922
I3744
aI5616
a(lp1923
I7
aI6
aI6
aI4
aI2
aa(lp1924
I7
aI6
aI6
aI4
aI2
aasI678
(lp1925
I3328
aI4992
a(lp1926
I3
aI7
aI19
aI45
aI0
aa(lp1927
I3
aI7
aI19
aI45
aI0
aasI679
(lp1928
I3744
aI5616
a(lp1929
I15
aI3
aI94
aI16
aI83
aa(lp1930
I15
aI1
aI94
aI16
aI83
aasI680
(lp1931
I3744
aI5616
a(lp1932
I17
aI5
aI160
aI8
aI162
aa(lp1933
I17
aI5
aI160
aI8
aI162
aasI681
(lp1934
I3328
aI4992
a(lp1935
I2
aI1
aI24
aI9
aI0
aa(lp1936
I2
aI1
aI24
aI9
aI0
aasI682
(lp1937
I3328
aI4992
a(lp1938
I1
aI2
aI6
aI9
aI0
aa(lp1939
I1
aI2
aI6
aI9
aI0
aasI683
(lp1940
I3744
aI5616
a(lp1941
I1
aI2
aI3
aI2
aI0
aa(lp1942
I1
aI2
aI3
aI2
aI0
aasI684
(lp1943
I3744
aI5616
a(lp1944
I17
aI4
aI88
aI45
aI54
aa(lp1945
I17
aI4
aI88
aI45
aI54
aasI685
(lp1946
I3744
aI5616
a(lp1947
I6
aI12
aI0
aI0
aI0
aa(lp1948
I6
aI12
aI0
aI0
aI0
aasI686
(lp1949
I3744
aI5616
a(lp1950
I3
aI36
aI0
aI59
aI0
aa(lp1951
I3
aI34
aI0
aI59
aI0
aasI688
(lp1952
I3744
aI5616
a(lp1953
I0
aI8
aI0
aI13
aI0
aa(lp1954
I0
aI8
aI0
aI13
aI0
aasI689
(lp1955
I3328
aI4992
a(lp1956
I1
aI0
aI1
aI0
aI0
aa(lp1957
I1
aI0
aI1
aI0
aI0
aasI690
(lp1958
I3744
aI5616
a(lp1959
I5
aI5
aI34
aI7
aI28
aa(lp1960
I5
aI5
aI34
aI7
aI28
aasI691
(lp1961
I3328
aI4992
a(lp1962
I1
aI1
aI0
aI0
aI0
aa(lp1963
I1
aI1
aI0
aI0
aI0
aasI692
(lp1964
I3328
aI4992
a(lp1965
I0
aI0
aI15
aI45
aI0
aa(lp1966
I0
aI0
aI15
aI45
aI0
aasI693
(lp1967
I3744
aI5616
a(lp1968
I3
aI10
aI7
aI2
aI0
aa(lp1969
I3
aI10
aI7
aI2
aI0
aasI694
(lp1970
I3328
aI4992
a(lp1971
I3
aI1
aI5
aI1
aI0
aa(lp1972
I3
aI1
aI5
aI1
aI0
aasI695
(lp1973
I3328
aI4992
a(lp1974
I1
aI0
aI2
aI0
aI2
aa(lp1975
I1
aI0
aI2
aI0
aI2
aasI696
(lp1976
I3744
aI5616
a(lp1977
I2
aI4
aI0
aI2
aI0
aa(lp1978
I2
aI4
aI0
aI2
aI0
aasI697
(lp1979
I3328
aI4992
a(lp1980
I1
aI1
aI2
aI0
aI0
aa(lp1981
I1
aI1
aI2
aI0
aI0
aasI698
(lp1982
I3744
aI5616
a(lp1983
I1
aI1
aI0
aI14
aI0
aa(lp1984
I1
aI0
aI0
aI14
aI0
aasI699
(lp1985
I3328
aI4992
a(lp1986
I20
aI13
aI39
aI2
aI14
aa(lp1987
I18
aI13
aI39
aI2
aI14
aasI700
(lp1988
I3328
aI4992
a(lp1989
I9
aI4
aI82
aI9
aI23
aa(lp1990
I9
aI4
aI81
aI7
aI23
aasI701
(lp1991
I3328
aI4992
a(lp1992
I12
aI10
aI91
aI19
aI158
aa(lp1993
I12
aI10
aI91
aI19
aI158
aasI702
(lp1994
I3744
aI5616
a(lp1995
I8
aI4
aI25
aI10
aI10
aa(lp1996
I8
aI4
aI25
aI10
aI10
aasI703
(lp1997
I3328
aI4992
a(lp1998
I7
aI0
aI38
aI52
aI0
aa(lp1999
I7
aI0
aI38
aI51
aI0
aasI704
(lp2000
I3328
aI4992
a(lp2001
I26
aI6
aI168
aI25
aI105
aa(lp2002
I26
aI6
aI168
aI25
aI105
aasI705
(lp2003
I3744
aI5616
a(lp2004
I3
aI0
aI19
aI38
aI2
aa(lp2005
I3
aI0
aI19
aI38
aI2
aasI706
(lp2006
I3744
aI5616
a(lp2007
I2
aI5
aI39
aI18
aI0
aa(lp2008
I2
aI4
aI39
aI18
aI0
aasI707
(lp2009
I3744
aI5616
a(lp2010
I4
aI22
aI1
aI7
aI0
aa(lp2011
I4
aI21
aI1
aI7
aI0
aasI708
(lp2012
I3744
aI5616
a(lp2013
I3
aI7
aI0
aI3
aI0
aa(lp2014
I3
aI7
aI0
aI3
aI0
aasI709
(lp2015
I3744
aI5616
a(lp2016
I1
aI2
aI19
aI50
aI0
aa(lp2017
I1
aI2
aI19
aI50
aI0
aasI710
(lp2018
I3744
aI5616
a(lp2019
I7
aI3
aI0
aI0
aI0
aa(lp2020
I6
aI3
aI0
aI0
aI0
aasI711
(lp2021
I3744
aI5616
a(lp2022
I4
aI7
aI5
aI3
aI0
aa(lp2023
I4
aI7
aI5
aI3
aI0
aasI713
(lp2024
I3328
aI4992
a(lp2025
I2
aI3
aI10
aI5
aI0
aa(lp2026
I2
aI3
aI10
aI5
aI0
aasI714
(lp2027
I3744
aI5616
a(lp2028
I13
aI2
aI85
aI7
aI21
aa(lp2029
I13
aI2
aI85
aI7
aI21
aasI715
(lp2030
I3328
aI4992
a(lp2031
I9
aI1
aI57
aI7
aI35
aa(lp2032
I9
aI1
aI57
aI7
aI35
aasI716
(lp2033
I3328
aI4992
a(lp2034
I5
aI5
aI53
aI30
aI0
aa(lp2035
I5
aI5
aI53
aI30
aI0
aasI717
(lp2036
I3328
aI4992
a(lp2037
I1
aI4
aI16
aI2
aI1
aa(lp2038
I1
aI4
aI16
aI2
aI1
aasI718
(lp2039
I3744
aI5616
a(lp2040
I13
aI3
aI39
aI1
aI42
aa(lp2041
I13
aI3
aI39
aI1
aI42
aasI719
(lp2042
I3328
aI4992
a(lp2043
I1
aI3
aI15
aI10
aI0
aa(lp2044
I1
aI3
aI15
aI10
aI0
aasI720
(lp2045
I3744
aI5616
a(lp2046
I8
aI1
aI51
aI7
aI24
aa(lp2047
I8
aI1
aI51
aI7
aI24
aasI722
(lp2048
I3328
aI4992
a(lp2049
I19
aI6
aI164
aI7
aI109
aa(lp2050
I19
aI6
aI164
aI7
aI109
aasI723
(lp2051
I3328
aI4992
a(lp2052
I8
aI0
aI41
aI5
aI45
aa(lp2053
I8
aI0
aI41
aI5
aI45
aasI724
(lp2054
I3744
aI5616
a(lp2055
I6
aI40
aI4
aI87
aI0
aa(lp2056
I6
aI39
aI4
aI85
aI0
aasI725
(lp2057
I3744
aI5616
a(lp2058
I6
aI2
aI68
aI100
aI0
aa(lp2059
I6
aI2
aI68
aI100
aI0
aasI726
(lp2060
I3328
aI4992
a(lp2061
I3
aI4
aI3
aI19
aI0
aa(lp2062
I3
aI4
aI3
aI19
aI0
aasI727
(lp2063
I3744
aI5616
a(lp2064
I13
aI6
aI103
aI18
aI66
aa(lp2065
I14
aI6
aI103
aI18
aI66
aasI728
(lp2066
I3744
aI5616
a(lp2067
I13
aI4
aI104
aI11
aI77
aa(lp2068
I13
aI4
aI104
aI11
aI77
aasI729
(lp2069
I3744
aI5616
a(lp2070
I1
aI4
aI3
aI29
aI0
aa(lp2071
I1
aI4
aI3
aI28
aI0
aasI730
(lp2072
I3744
aI5616
a(lp2073
I1
aI3
aI0
aI0
aI0
aa(lp2074
I1
aI3
aI0
aI0
aI0
aasI731
(lp2075
I3744
aI5616
a(lp2076
I4
aI0
aI12
aI0
aI8
aa(lp2077
I4
aI0
aI12
aI0
aI8
aasI732
(lp2078
I3744
aI5616
a(lp2079
I4
aI8
aI0
aI0
aI0
aa(lp2080
I4
aI6
aI0
aI0
aI0
aasI733
(lp2081
I3328
aI4992
a(lp2082
I1
aI0
aI0
aI0
aI0
aa(lp2083
I1
aI0
aI0
aI0
aI0
aasI734
(lp2084
I3328
aI4992
a(lp2085
I1
aI1
aI0
aI0
aI0
aa(lp2086
I1
aI1
aI0
aI0
aI0
aasI735
(lp2087
I3744
aI5616
a(lp2088
I0
aI3
aI9
aI0
aI0
aa(lp2089
I0
aI3
aI9
aI0
aI0
aasI736
(lp2090
I3744
aI5616
a(lp2091
I9
aI36
aI0
aI2
aI0
aa(lp2092
I9
aI36
aI0
aI2
aI0
aasI737
(lp2093
I3744
aI5616
a(lp2094
I2
aI3
aI0
aI0
aI0
aa(lp2095
I2
aI3
aI0
aI0
aI0
aasI738
(lp2096
I3744
aI5616
a(lp2097
I1
aI1
aI0
aI8
aI0
aa(lp2098
I1
aI1
aI0
aI8
aI0
aasI739
(lp2099
I3744
aI5616
a(lp2100
I4
aI6
aI1
aI0
aI1
aa(lp2101
I4
aI3
aI1
aI0
aI1
aasI740
(lp2102
I3328
aI4992
a(lp2103
I9
aI4
aI20
aI8
aI2
aa(lp2104
I9
aI4
aI20
aI8
aI2
aasI741
(lp2105
I3328
aI4992
a(lp2106
I32
aI5
aI228
aI38
aI176
aa(lp2107
I34
aI5
aI228
aI38
aI176
aasI742
(lp2108
I3744
aI5616
a(lp2109
I6
aI1
aI23
aI6
aI14
aa(lp2110
I7
aI1
aI23
aI6
aI14
aasI743
(lp2111
I3328
aI4992
a(lp2112
I12
aI5
aI113
aI13
aI91
aa(lp2113
I12
aI5
aI113
aI13
aI91
aasI744
(lp2114
I3744
aI5616
a(lp2115
I6
aI3
aI51
aI498
aI0
aa(lp2116
I6
aI3
aI51
aI496
aI0
aasI745
(lp2117
I3328
aI4992
a(lp2118
I32
aI10
aI270
aI30
aI183
aa(lp2119
I32
aI10
aI269
aI30
aI183
aasI746
(lp2120
I3744
aI5616
a(lp2121
I1
aI0
aI11
aI19
aI0
aa(lp2122
I1
aI0
aI11
aI19
aI0
aasI747
(lp2123
I3744
aI5616
a(lp2124
I17
aI6
aI251
aI17
aI225
aa(lp2125
I17
aI6
aI251
aI17
aI225
aasI748
(lp2126
I3328
aI4992
a(lp2127
I0
aI6
aI0
aI0
aI0
aa(lp2128
I0
aI5
aI0
aI0
aI0
aasI749
(lp2129
I3328
aI4992
a(lp2130
I6
aI0
aI24
aI8
aI2
aa(lp2131
I6
aI0
aI24
aI8
aI2
aasI750
(lp2132
I3328
aI4992
a(lp2133
I5
aI1
aI9
aI7
aI0
aa(lp2134
I3
aI1
aI9
aI5
aI0
aasI751
(lp2135
I3744
aI5616
a(lp2136
I0
aI7
aI0
aI2
aI0
aa(lp2137
I0
aI4
aI0
aI0
aI0
aasI752
(lp2138
I3328
aI4992
a(lp2139
I6
aI1
aI16
aI6
aI12
aa(lp2140
I6
aI1
aI16
aI6
aI12
aasI753
(lp2141
I3328
aI4992
a(lp2142
I8
aI1
aI35
aI19
aI18
aa(lp2143
I8
aI1
aI35
aI19
aI18
aasI754
(lp2144
I3328
aI4992
a(lp2145
I2
aI0
aI19
aI31
aI0
aa(lp2146
I2
aI0
aI19
aI29
aI0
aasI755
(lp2147
I3744
aI5616
a(lp2148
I5
aI17
aI51
aI139
aI0
aa(lp2149
I5
aI17
aI51
aI139
aI0
aasI756
(lp2150
I3328
aI4992
a(lp2151
I0
aI0
aI20
aI34
aI0
aa(lp2152
I0
aI0
aI20
aI34
aI0
aasI757
(lp2153
I3328
aI4992
a(lp2154
I1
aI0
aI0
aI0
aI0
aa(lp2155
I1
aI0
aI0
aI0
aI0
aasI758
(lp2156
I3744
aI5616
a(lp2157
I3
aI0
aI12
aI85
aI0
aa(lp2158
I3
aI0
aI12
aI85
aI0
aasI759
(lp2159
I3744
aI5616
a(lp2160
I19
aI5
aI143
aI13
aI119
aa(lp2161
I19
aI2
aI143
aI13
aI119
aasI760
(lp2162
I3744
aI5616
a(lp2163
I3
aI15
aI0
aI7
aI0
aa(lp2164
I3
aI15
aI0
aI7
aI0
aasI761
(lp2165
I3328
aI4992
a(lp2166
I9
aI19
aI53
aI61
aI0
aa(lp2167
I9
aI19
aI53
aI58
aI0
aasI762
(lp2168
I3328
aI4992
a(lp2169
I2
aI2
aI2
aI0
aI0
aa(lp2170
I2
aI2
aI2
aI0
aI0
aasI763
(lp2171
I3744
aI5616
a(lp2172
I0
aI1
aI0
aI74
aI0
aa(lp2173
I0
aI1
aI0
aI72
aI0
aasI764
(lp2174
I3328
aI4992
a(lp2175
I4
aI4
aI26
aI2
aI7
aa(lp2176
I4
aI4
aI26
aI2
aI6
aasI765
(lp2177
I3328
aI4992
a(lp2178
I0
aI1
aI20
aI19
aI0
aa(lp2179
I0
aI1
aI20
aI19
aI0
aasI766
(lp2180
I3328
aI4992
a(lp2181
I1
aI1
aI1
aI0
aI0
aa(lp2182
I1
aI1
aI1
aI0
aI0
aasI768
(lp2183
I3328
aI4992
a(lp2184
I2
aI1
aI0
aI0
aI0
aa(lp2185
I2
aI1
aI0
aI0
aI0
aasI769
(lp2186
I3744
aI5616
a(lp2187
I12
aI0
aI161
aI15
aI130
aa(lp2188
I12
aI0
aI161
aI15
aI130
aasI770
(lp2189
I3328
aI4992
a(lp2190
I1
aI4
aI24
aI5
aI0
aa(lp2191
I1
aI4
aI24
aI5
aI0
aasI771
(lp2192
I3328
aI4992
a(lp2193
I7
aI1
aI113
aI28
aI0
aa(lp2194
I7
aI1
aI113
aI28
aI0
aasI772
(lp2195
I3328
aI4992
a(lp2196
I0
aI1
aI0
aI1
aI0
aa(lp2197
I0
aI1
aI0
aI1
aI0
aasI773
(lp2198
I3744
aI5616
a(lp2199
I28
aI8
aI213
aI5
aI138
aa(lp2200
I28
aI8
aI213
aI5
aI138
aasI774
(lp2201
I3744
aI5616
a(lp2202
I20
aI0
aI139
aI12
aI114
aa(lp2203
I20
aI0
aI139
aI12
aI114
aasI775
(lp2204
I3328
aI4992
a(lp2205
I3
aI4
aI51
aI4
aI49
aa(lp2206
I3
aI4
aI51
aI4
aI49
aasI776
(lp2207
I3744
aI5616
a(lp2208
I3
aI2
aI25
aI2
aI29
aa(lp2209
I8
aI2
aI25
aI2
aI29
aasI777
(lp2210
I3328
aI4992
a(lp2211
I2
aI3
aI0
aI0
aI0
aa(lp2212
I2
aI3
aI0
aI0
aI0
aasI778
(lp2213
I3744
aI5616
a(lp2214
I2
aI3
aI0
aI1
aI0
aa(lp2215
I2
aI3
aI0
aI1
aI0
aasI780
(lp2216
I3744
aI5616
a(lp2217
I0
aI0
aI3
aI3
aI0
aa(lp2218
I0
aI0
aI3
aI3
aI0
aasI782
(lp2219
I3744
aI5616
a(lp2220
I0
aI3
aI95
aI22
aI0
aa(lp2221
I0
aI3
aI95
aI22
aI0
aasI783
(lp2222
I3744
aI5616
a(lp2223
I17
aI8
aI88
aI18
aI10
aa(lp2224
I17
aI8
aI88
aI18
aI10
aasI784
(lp2225
I3328
aI4992
a(lp2226
I11
aI5
aI211
aI211
aI0
aa(lp2227
I11
aI5
aI211
aI211
aI0
aasI785
(lp2228
I3328
aI4992
a(lp2229
I41
aI8
aI288
aI22
aI230
aa(lp2230
I41
aI8
aI288
aI22
aI230
aasI786
(lp2231
I3744
aI5616
a(lp2232
I1
aI2
aI0
aI0
aI0
aa(lp2233
I1
aI2
aI0
aI0
aI0
aasI787
(lp2234
I3744
aI5616
a(lp2235
I3
aI4
aI0
aI10
aI0
aa(lp2236
I3
aI4
aI0
aI10
aI0
aasI788
(lp2237
I3744
aI5616
a(lp2238
I4
aI19
aI12
aI5
aI0
aa(lp2239
I3
aI18
aI12
aI5
aI0
aasI789
(lp2240
I3744
aI5616
a(lp2241
I3
aI2
aI23
aI1
aI18
aa(lp2242
I3
aI2
aI23
aI1
aI18
aasI790
(lp2243
I3328
aI4992
a(lp2244
I7
aI2
aI41
aI4
aI36
aa(lp2245
I7
aI2
aI40
aI4
aI36
aasI791
(lp2246
I3744
aI5616
a(lp2247
I4
aI4
aI37
aI3
aI26
aa(lp2248
I4
aI4
aI37
aI3
aI26
aasI792
(lp2249
I3328
aI4992
a(lp2250
I10
aI0
aI49
aI1
aI42
aa(lp2251
I10
aI0
aI49
aI1
aI42
aasI793
(lp2252
I3328
aI4992
a(lp2253
I11
aI5
aI8
aI0
aI0
aa(lp2254
I11
aI5
aI8
aI0
aI0
aasI795
(lp2255
I3328
aI4992
a(lp2256
I3
aI0
aI8
aI0
aI1
aa(lp2257
I3
aI0
aI7
aI0
aI0
aasI796
(lp2258
I3744
aI5616
a(lp2259
I1
aI0
aI1
aI8
aI0
aa(lp2260
I1
aI0
aI1
aI8
aI0
aasI797
(lp2261
I3328
aI4992
a(lp2262
I1
aI0
aI0
aI0
aI0
aa(lp2263
I1
aI0
aI0
aI0
aI0
aasI798
(lp2264
I3744
aI5616
a(lp2265
I2
aI1
aI0
aI1
aI0
aa(lp2266
I2
aI1
aI0
aI0
aI0
aasI799
(lp2267
I3744
aI5616
a(lp2268
I4
aI12
aI13
aI74
aI3
aa(lp2269
I4
aI12
aI13
aI74
aI3
aasI801
(lp2270
I3744
aI5616
a(lp2271
I9
aI3
aI56
aI30
aI57
aa(lp2272
I9
aI3
aI56
aI30
aI57
aasI802
(lp2273
I3744
aI5616
a(lp2274
I11
aI6
aI48
aI54
aI12
aa(lp2275
I11
aI6
aI48
aI54
aI12
aasI803
(lp2276
I3744
aI5616
a(lp2277
I21
aI10
aI258
aI40
aI151
aa(lp2278
I20
aI10
aI259
aI40
aI151
aasI804
(lp2279
I3328
aI4992
a(lp2280
I6
aI1
aI56
aI52
aI0
aa(lp2281
I6
aI1
aI56
aI51
aI0
aasI805
(lp2282
I3328
aI4992
a(lp2283
I12
aI1
aI60
aI14
aI32
aa(lp2284
I12
aI1
aI60
aI14
aI31
aasI806
(lp2285
I3744
aI5616
a(lp2286
I5
aI12
aI14
aI4
aI10
aa(lp2287
I5
aI11
aI14
aI3
aI10
aasI807
(lp2288
I3744
aI5616
a(lp2289
I7
aI0
aI57
aI7
aI56
aa(lp2290
I7
aI0
aI57
aI7
aI56
aasI808
(lp2291
I3328
aI4992
a(lp2292
I1
aI0
aI0
aI0
aI0
aa(lp2293
I1
aI0
aI0
aI0
aI0
aasI809
(lp2294
I3328
aI4992
a(lp2295
I3
aI0
aI48
aI43
aI1
aa(lp2296
I3
aI0
aI48
aI43
aI1
aasI810
(lp2297
I3328
aI4992
a(lp2298
I15
aI4
aI68
aI28
aI20
aa(lp2299
I15
aI4
aI68
aI28
aI20
aasI812
(lp2300
I3328
aI4992
a(lp2301
I3
aI0
aI16
aI3
aI0
aa(lp2302
I3
aI0
aI16
aI3
aI0
aasI813
(lp2303
I3328
aI4992
a(lp2304
I1
aI3
aI6
aI21
aI0
aa(lp2305
I1
aI3
aI6
aI20
aI0
aasI814
(lp2306
I3744
aI5616
a(lp2307
I1
aI6
aI0
aI6
aI0
aa(lp2308
I1
aI6
aI0
aI5
aI0
aasI815
(lp2309
I3744
aI5616
a(lp2310
I5
aI3
aI2
aI4
aI0
aa(lp2311
I5
aI3
aI2
aI4
aI0
aasI816
(lp2312
I3328
aI4992
a(lp2313
I3
aI0
aI35
aI33
aI0
aa(lp2314
I2
aI0
aI34
aI10
aI0
aasI817
(lp2315
I3744
aI5616
a(lp2316
I4
aI5
aI26
aI39
aI0
aa(lp2317
I4
aI5
aI26
aI39
aI0
aasI818
(lp2318
I3744
aI5616
a(lp2319
I1
aI0
aI4
aI7
aI0
aa(lp2320
I1
aI0
aI4
aI7
aI0
aasI819
(lp2321
I3328
aI4992
a(lp2322
I2
aI0
aI0
aI0
aI0
aa(lp2323
I2
aI0
aI0
aI0
aI0
aasI820
(lp2324
I3328
aI4992
a(lp2325
I4
aI3
aI44
aI4
aI41
aa(lp2326
I4
aI3
aI44
aI4
aI41
aasI821
(lp2327
I3328
aI4992
a(lp2328
I1
aI0
aI3
aI2
aI0
aa(lp2329
I1
aI0
aI3
aI2
aI0
aasI822
(lp2330
I3744
aI5616
a(lp2331
I30
aI10
aI305
aI12
aI210
aa(lp2332
I30
aI10
aI305
aI11
aI210
aasI823
(lp2333
I3744
aI5616
a(lp2334
I2
aI10
aI29
aI12
aI0
aa(lp2335
I2
aI7
aI29
aI12
aI0
aasI824
(lp2336
I3744
aI5616
a(lp2337
I2
aI4
aI0
aI0
aI0
aa(lp2338
I2
aI4
aI0
aI0
aI0
aasI825
(lp2339
I3328
aI4992
a(lp2340
I3
aI1
aI0
aI1
aI0
aa(lp2341
I3
aI1
aI0
aI1
aI0
aasI826
(lp2342
I3328
aI4992
a(lp2343
I0
aI2
aI3
aI0
aI0
aa(lp2344
I0
aI2
aI3
aI0
aI0
aasI827
(lp2345
I3328
aI4992
a(lp2346
I8
aI7
aI4
aI0
aI0
aa(lp2347
I4
aI7
aI4
aI0
aI0
aasI828
(lp2348
I3744
aI5616
a(lp2349
I15
aI9
aI49
aI4
aI35
aa(lp2350
I15
aI9
aI49
aI4
aI35
aasI829
(lp2351
I3744
aI5616
a(lp2352
I4
aI3
aI15
aI9
aI8
aa(lp2353
I4
aI3
aI15
aI9
aI8
aasI830
(lp2354
I3744
aI5616
a(lp2355
I2
aI10
aI4
aI32
aI0
aa(lp2356
I2
aI10
aI4
aI32
aI0
aasI831
(lp2357
I3328
aI4992
a(lp2358
I3
aI2
aI6
aI1
aI0
aa(lp2359
I3
aI2
aI6
aI1
aI0
aasI832
(lp2360
I3744
aI5616
a(lp2361
I0
aI4
aI0
aI18
aI0
aa(lp2362
I0
aI4
aI0
aI18
aI0
aasI833
(lp2363
I3744
aI5616
a(lp2364
I22
aI3
aI226
aI43
aI215
aa(lp2365
I22
aI3
aI226
aI43
aI215
aasI834
(lp2366
I3744
aI5616
a(lp2367
I0
aI7
aI0
aI1
aI0
aa(lp2368
I0
aI7
aI0
aI1
aI0
aasI835
(lp2369
I3744
aI5616
a(lp2370
I4
aI6
aI1
aI2
aI0
aa(lp2371
I4
aI6
aI1
aI2
aI0
aasI836
(lp2372
I3744
aI5616
a(lp2373
I2
aI3
aI3
aI1
aI0
aa(lp2374
I2
aI3
aI3
aI1
aI0
aasI837
(lp2375
I3328
aI4992
a(lp2376
I1
aI0
aI3
aI4
aI0
aa(lp2377
I1
aI0
aI0
aI0
aI0
aasI838
(lp2378
I3744
aI5616
a(lp2379
I11
aI28
aI2
aI5
aI0
aa(lp2380
I11
aI28
aI2
aI5
aI0
aasI841
(lp2381
I3744
aI5616
a(lp2382
I3
aI6
aI0
aI26
aI0
aa(lp2383
I3
aI6
aI0
aI26
aI0
aasI842
(lp2384
I3328
aI4992
a(lp2385
I2
aI4
aI6
aI4
aI0
aa(lp2386
I2
aI4
aI6
aI4
aI0
aasI843
(lp2387
I3328
aI4992
a(lp2388
I3
aI0
aI6
aI4
aI0
aa(lp2389
I3
aI0
aI6
aI4
aI0
aasI844
(lp2390
I3328
aI4992
a(lp2391
I9
aI7
aI5
aI4
aI0
aa(lp2392
I9
aI7
aI5
aI4
aI0
aasI845
(lp2393
I3328
aI4992
a(lp2394
I8
aI1
aI9
aI16
aI0
aa(lp2395
I8
aI1
aI9
aI17
aI0
aasI846
(lp2396
I3328
aI4992
a(lp2397
I1
aI1
aI13
aI3
aI0
aa(lp2398
I1
aI1
aI13
aI3
aI0
aasI847
(lp2399
I3744
aI5616
a(lp2400
I27
aI3
aI227
aI46
aI151
aa(lp2401
I27
aI3
aI227
aI46
aI151
aasI848
(lp2402
I3744
aI5616
a(lp2403
I1
aI1
aI5
aI23
aI0
aa(lp2404
I1
aI1
aI5
aI23
aI0
aasI849
(lp2405
I3744
aI5616
a(lp2406
I6
aI1
aI24
aI5
aI10
aa(lp2407
I6
aI1
aI24
aI5
aI10
aasI850
(lp2408
I3328
aI4992
a(lp2409
I6
aI13
aI13
aI0
aI0
aa(lp2410
I6
aI13
aI13
aI0
aI0
aasI851
(lp2411
I3328
aI4992
a(lp2412
I1
aI2
aI10
aI8
aI0
aa(lp2413
I1
aI2
aI10
aI8
aI0
aasI852
(lp2414
I3744
aI5616
a(lp2415
I6
aI27
aI3
aI10
aI3
aa(lp2416
I6
aI27
aI3
aI10
aI3
aasI853
(lp2417
I3744
aI5616
a(lp2418
I0
aI4
aI0
aI0
aI0
aa(lp2419
I0
aI4
aI0
aI0
aI0
aasI854
(lp2420
I3744
aI5616
a(lp2421
I1
aI2
aI0
aI1
aI0
aa(lp2422
I1
aI2
aI0
aI1
aI0
aasI855
(lp2423
I3744
aI5616
a(lp2424
I3
aI2
aI24
aI78
aI0
aa(lp2425
I3
aI2
aI24
aI78
aI0
aasI856
(lp2426
I3744
aI5616
a(lp2427
I8
aI4
aI14
aI5
aI0
aa(lp2428
I8
aI4
aI14
aI5
aI0
aasI857
(lp2429
I3744
aI5616
a(lp2430
I1
aI10
aI0
aI3
aI0
aa(lp2431
I0
aI0
aI0
aI0
aI0
aasI858
(lp2432
I3744
aI5616
a(lp2433
I6
aI12
aI20
aI67
aI0
aa(lp2434
I4
aI12
aI20
aI67
aI0
aasI859
(lp2435
I3744
aI5616
a(lp2436
I3
aI6
aI8
aI33
aI0
aa(lp2437
I3
aI6
aI8
aI33
aI0
aasI860
(lp2438
I3328
aI4992
a(lp2439
I3
aI2
aI20
aI11
aI7
aa(lp2440
I3
aI2
aI20
aI11
aI7
aasI861
(lp2441
I3328
aI4992
a(lp2442
I4
aI6
aI110
aI0
aI0
aa(lp2443
I4
aI6
aI110
aI0
aI0
aasI862
(lp2444
I3744
aI5616
a(lp2445
I4
aI2
aI18
aI99
aI1
aa(lp2446
I4
aI2
aI18
aI99
aI1
aasI863
(lp2447
I3328
aI4992
a(lp2448
I1
aI1
aI0
aI0
aI0
aa(lp2449
I1
aI1
aI0
aI0
aI0
aasI864
(lp2450
I3744
aI5616
a(lp2451
I14
aI2
aI207
aI20
aI172
aa(lp2452
I14
aI2
aI207
aI20
aI172
aasI865
(lp2453
I3328
aI4992
a(lp2454
I1
aI0
aI0
aI1
aI1
aa(lp2455
I0
aI0
aI0
aI1
aI0
aasI866
(lp2456
I3328
aI4992
a(lp2457
I2
aI0
aI4
aI14
aI0
aa(lp2458
I2
aI0
aI4
aI14
aI0
aasI867
(lp2459
I3328
aI4992
a(lp2460
I0
aI2
aI5
aI11
aI0
aa(lp2461
I0
aI2
aI5
aI11
aI0
aasI868
(lp2462
I3328
aI4992
a(lp2463
I5
aI11
aI62
aI94
aI0
aa(lp2464
I5
aI11
aI62
aI94
aI0
aasI870
(lp2465
I3328
aI4992
a(lp2466
I2
aI0
aI7
aI0
aI0
aa(lp2467
I2
aI0
aI7
aI0
aI0
aasI871
(lp2468
I3328
aI4992
a(lp2469
I23
aI10
aI196
aI43
aI176
aa(lp2470
I23
aI10
aI193
aI43
aI172
aasI872
(lp2471
I3744
aI5616
a(lp2472
I7
aI11
aI132
aI36
aI0
aa(lp2473
I7
aI11
aI132
aI36
aI0
aasI873
(lp2474
I3328
aI4992
a(lp2475
I1
aI0
aI30
aI77
aI0
aa(lp2476
I1
aI0
aI30
aI76
aI0
aasI874
(lp2477
I3744
aI5616
a(lp2478
I18
aI7
aI118
aI47
aI117
aa(lp2479
I18
aI7
aI118
aI47
aI117
aasI875
(lp2480
I3328
aI4992
a(lp2481
I4
aI8
aI60
aI14
aI0
aa(lp2482
I4
aI8
aI60
aI14
aI0
aasI876
(lp2483
I3328
aI4992
a(lp2484
I1
aI0
aI0
aI0
aI0
aa(lp2485
I1
aI0
aI0
aI0
aI0
aasI877
(lp2486
I3328
aI4992
a(lp2487
I1
aI3
aI7
aI3
aI0
aa(lp2488
I1
aI3
aI7
aI3
aI0
aasI878
(lp2489
I3744
aI5616
a(lp2490
I1
aI1
aI16
aI36
aI0
aa(lp2491
I1
aI0
aI16
aI36
aI0
aasI879
(lp2492
I3328
aI4992
a(lp2493
I0
aI0
aI28
aI75
aI0
aa(lp2494
I0
aI0
aI28
aI75
aI0
aasI880
(lp2495
I3744
aI5616
a(lp2496
I2
aI0
aI9
aI23
aI0
aa(lp2497
I2
aI0
aI9
aI23
aI0
aasI881
(lp2498
I3328
aI4992
a(lp2499
I43
aI16
aI169
aI59
aI117
aa(lp2500
I43
aI16
aI169
aI58
aI117
aasI883
(lp2501
I3744
aI5616
a(lp2502
I1
aI3
aI0
aI0
aI0
aa(lp2503
I1
aI3
aI0
aI0
aI0
aasI884
(lp2504
I3744
aI5616
a(lp2505
I3
aI0
aI59
aI13
aI7
aa(lp2506
I3
aI0
aI59
aI13
aI7
aasI885
(lp2507
I3328
aI4992
a(lp2508
I3
aI0
aI21
aI12
aI0
aa(lp2509
I3
aI0
aI21
aI12
aI0
aasI886
(lp2510
I3744
aI5616
a(lp2511
I2
aI0
aI30
aI0
aI15
aa(lp2512
I2
aI0
aI30
aI0
aI15
aasI887
(lp2513
I3328
aI4992
a(lp2514
I1
aI2
aI0
aI0
aI0
aa(lp2515
I1
aI2
aI0
aI0
aI0
aasI888
(lp2516
I3328
aI4992
a(lp2517
I1
aI0
aI5
aI4
aI0
aa(lp2518
I1
aI0
aI5
aI4
aI0
aasI889
(lp2519
I3744
aI5616
a(lp2520
I11
aI1
aI32
aI4
aI15
aa(lp2521
I10
aI0
aI32
aI4
aI14
aasI890
(lp2522
I3328
aI4992
a(lp2523
I3
aI0
aI10
aI3
aI0
aa(lp2524
I3
aI0
aI10
aI3
aI0
aasI891
(lp2525
I3744
aI5616
a(lp2526
I7
aI0
aI27
aI5
aI22
aa(lp2527
I7
aI0
aI27
aI5
aI22
aasI892
(lp2528
I3328
aI4992
a(lp2529
I16
aI6
aI144
aI3
aI124
aa(lp2530
I16
aI6
aI144
aI3
aI124
aasI893
(lp2531
I3744
aI5616
a(lp2532
I1
aI3
aI30
aI35
aI8
aa(lp2533
I1
aI3
aI30
aI35
aI8
aasI894
(lp2534
I3328
aI4992
a(lp2535
I2
aI2
aI41
aI39
aI0
aa(lp2536
I2
aI2
aI41
aI39
aI0
aasI895
(lp2537
I3328
aI4992
a(lp2538
I3
aI2
aI52
aI15
aI7
aa(lp2539
I3
aI2
aI52
aI15
aI7
aasI896
(lp2540
I3328
aI4992
a(lp2541
I4
aI0
aI0
aI0
aI0
aa(lp2542
I4
aI0
aI0
aI0
aI0
aasI897
(lp2543
I3328
aI4992
a(lp2544
I0
aI4
aI21
aI11
aI0
aa(lp2545
I0
aI4
aI21
aI11
aI0
aasI898
(lp2546
I3328
aI4992
a(lp2547
I10
aI4
aI79
aI6
aI45
aa(lp2548
I10
aI4
aI79
aI6
aI45
aasI899
(lp2549
I3744
aI5616
a(lp2550
I0
aI3
aI0
aI2
aI0
aa(lp2551
I2
aI2
aI3
aI3
aI0
aasI900
(lp2552
I3744
aI5616
a(lp2553
I42
aI5
aI682
aI26
aI529
aa(lp2554
I42
aI5
aI681
aI26
aI529
aasI902
(lp2555
I3328
aI4992
a(lp2556
I0
aI2
aI0
aI0
aI0
aa(lp2557
I0
aI2
aI0
aI0
aI0
aasI904
(lp2558
I3328
aI4992
a(lp2559
I1
aI1
aI0
aI0
aI0
aa(lp2560
I1
aI1
aI0
aI0
aI0
aasI906
(lp2561
I3744
aI5616
a(lp2562
I4
aI2
aI20
aI7
aI2
aa(lp2563
I4
aI1
aI18
aI7
aI2
aasI907
(lp2564
I3744
aI5616
a(lp2565
I3
aI3
aI32
aI55
aI0
aa(lp2566
I3
aI3
aI32
aI55
aI0
aasI908
(lp2567
I3328
aI4992
a(lp2568
I4
aI2
aI0
aI0
aI0
aa(lp2569
I4
aI2
aI0
aI0
aI0
aasI910
(lp2570
I3744
aI5616
a(lp2571
I3
aI16
aI0
aI5
aI0
aa(lp2572
I3
aI16
aI0
aI1
aI0
aasI911
(lp2573
I3744
aI5616
a(lp2574
I4
aI5
aI149
aI50
aI0
aa(lp2575
I4
aI5
aI149
aI50
aI0
aasI912
(lp2576
I3328
aI4992
a(lp2577
I30
aI2
aI244
aI13
aI205
aa(lp2578
I30
aI2
aI246
aI13
aI205
aasI914
(lp2579
I3744
aI5616
a(lp2580
I3
aI23
aI15
aI115
aI0
aa(lp2581
I3
aI23
aI15
aI114
aI0
aasI915
(lp2582
I3328
aI4992
a(lp2583
I0
aI0
aI2
aI5
aI0
aa(lp2584
I0
aI0
aI2
aI5
aI0
aasI916
(lp2585
I3328
aI4992
a(lp2586
I1
aI3
aI12
aI13
aI0
aa(lp2587
I1
aI3
aI12
aI13
aI0
aasI917
(lp2588
I3744
aI5616
a(lp2589
I10
aI8
aI32
aI110
aI0
aa(lp2590
I10
aI8
aI31
aI109
aI0
aasI918
(lp2591
I3328
aI4992
a(lp2592
I4
aI2
aI25
aI7
aI0
aa(lp2593
I4
aI2
aI22
aI6
aI3
aasI919
(lp2594
I3744
aI5616
a(lp2595
I5
aI3
aI41
aI64
aI3
aa(lp2596
I5
aI3
aI41
aI64
aI3
aasI920
(lp2597
I3744
aI5616
a(lp2598
I11
aI2
aI280
aI212
aI2
aa(lp2599
I11
aI2
aI280
aI211
aI2
aasI921
(lp2600
I3328
aI4992
a(lp2601
I1
aI0
aI25
aI51
aI0
aa(lp2602
I1
aI0
aI25
aI52
aI0
aasI922
(lp2603
I3328
aI4992
a(lp2604
I4
aI4
aI7
aI6
aI0
aa(lp2605
I4
aI4
aI7
aI6
aI0
aasI923
(lp2606
I3744
aI5616
a(lp2607
I8
aI2
aI106
aI11
aI86
aa(lp2608
I8
aI2
aI106
aI11
aI86
aasI924
(lp2609
I3328
aI4992
a(lp2610
I23
aI3
aI131
aI8
aI125
aa(lp2611
I23
aI3
aI131
aI8
aI124
aasI925
(lp2612
I3744
aI5616
a(lp2613
I3
aI3
aI18
aI62
aI0
aa(lp2614
I3
aI2
aI18
aI59
aI0
aasI926
(lp2615
I3744
aI5616
a(lp2616
I2
aI0
aI3
aI32
aI0
aa(lp2617
I2
aI0
aI3
aI31
aI0
aasI928
(lp2618
I3328
aI4992
a(lp2619
I1
aI0
aI0
aI22
aI0
aa(lp2620
I1
aI0
aI0
aI22
aI0
aasI929
(lp2621
I3328
aI4992
a(lp2622
I3
aI0
aI23
aI50
aI0
aa(lp2623
I3
aI0
aI23
aI50
aI0
aasI930
(lp2624
I3328
aI4992
a(lp2625
I8
aI0
aI36
aI8
aI21
aa(lp2626
I8
aI0
aI36
aI8
aI21
aasI931
(lp2627
I3744
aI5616
a(lp2628
I3
aI2
aI20
aI17
aI0
aa(lp2629
I3
aI2
aI20
aI17
aI0
aasI932
(lp2630
I3744
aI5616
a(lp2631
I5
aI8
aI21
aI67
aI0
aa(lp2632
I5
aI8
aI21
aI67
aI0
aasI933
(lp2633
I3744
aI5616
a(lp2634
I6
aI7
aI68
aI70
aI21
aa(lp2635
I6
aI7
aI68
aI69
aI21
aasI934
(lp2636
I3328
aI4992
a(lp2637
I4
aI2
aI36
aI17
aI0
aa(lp2638
I4
aI2
aI36
aI16
aI0
aasI935
(lp2639
I3328
aI4992
a(lp2640
I0
aI1
aI0
aI0
aI0
aa(lp2641
I0
aI1
aI0
aI0
aI0
aasI936
(lp2642
I3744
aI5616
a(lp2643
I1
aI0
aI1
aI2
aI0
aa(lp2644
I1
aI0
aI1
aI2
aI0
aasI937
(lp2645
I3744
aI5616
a(lp2646
I4
aI10
aI26
aI10
aI0
aa(lp2647
I4
aI9
aI26
aI10
aI0
aasI938
(lp2648
I3328
aI4992
a(lp2649
I0
aI0
aI4
aI0
aI0
aa(lp2650
I0
aI0
aI4
aI0
aI0
aasI939
(lp2651
I3328
aI4992
a(lp2652
I16
aI3
aI98
aI8
aI66
aa(lp2653
I16
aI3
aI98
aI8
aI66
aasI940
(lp2654
I3744
aI5616
a(lp2655
I2
aI4
aI3
aI74
aI0
aa(lp2656
I2
aI4
aI3
aI74
aI0
aasI941
(lp2657
I3328
aI4992
a(lp2658
I6
aI2
aI47
aI2
aI39
aa(lp2659
I5
aI2
aI46
aI1
aI37
aasI942
(lp2660
I3744
aI5616
a(lp2661
I1
aI6
aI0
aI37
aI0
aa(lp2662
I1
aI6
aI0
aI37
aI0
aasI943
(lp2663
I3328
aI4992
a(lp2664
I1
aI1
aI24
aI26
aI0
aa(lp2665
I1
aI1
aI24
aI26
aI0
aasI944
(lp2666
I3744
aI5616
a(lp2667
I1
aI4
aI1
aI0
aI0
aa(lp2668
I1
aI4
aI1
aI0
aI0
aasI945
(lp2669
I3328
aI4992
a(lp2670
I6
aI0
aI79
aI6
aI45
aa(lp2671
I6
aI0
aI79
aI6
aI45
aas.